Certificate:
    Data:
        Version: 3 (0x2)
        Serial Number:
            7e:87:2e:30:f5:8d:0a:d5:0d:0d:c5:64:03:aa:e7:4b:df:c9:b6:f9
        Signature Algorithm: sha256WithRSAEncryption
        Issuer: C=AU, O=Dodgy Brothers, CN=Dodgy CA
        Validity
            Not Before: Aug  1 19:35:52 2023 GMT
            Not After : Jul 31 19:35:52 2024 GMT
        Subject: C=AU, O=Dodgy Brothers, CN=Brother 1, CN=Brother 2
        Subject Public Key Info:
            Public Key Algorithm: rsaEncryption
                Public-Key: (2048 bit)
                Modulus:
                    00:a8:ff:89:58:61:85:ae:de:db:2c:0f:d5:73:fb:
                    e2:b7:a8:1b:7a:75:60:2b:d4:7d:3c:73:76:b5:ae:
                    de:93:2f:7f:24:90:6d:c9:1c:f4:8a:38:cd:9f:a2:
                    80:16:56:cb:b4:2c:bb:93:e5:17:1f:ff:0d:c6:43:
                    fe:31:34:f8:28:d8:75:e9:a3:bb:88:82:ef:a3:72:
                    e2:53:62:05:45:4d:e0:31:97:ef:aa:9d:10:d2:58:
                    0d:9e:06:9e:32:bb:1b:08:56:5d:65:0f:3f:66:8e:
                    c2:36:a0:11:ff:c0:59:35:fd:49:1c:dd:1c:42:33:
                    06:78:ae:04:38:23:e5:e7:75:67:d3:94:ad:5a:a9:
                    40:1f:ac:59:10:f5:0c:c1:64:ad:4a:c4:c6:35:53:
                    b3:96:6a:82:1b:15:8b:d1:99:ab:e4:9e:6f:94:aa:
                    d2:96:e5:57:fb:8c:91:64:8a:3c:24:16:c6:d2:19:
                    be:82:60:13:3b:62:b0:ed:3e:1d:b3:ca:f9:6b:df:
                    31:b9:7a:9e:4b:47:68:a7:29:c7:3f:4a:e2:22:27:
                    b4:ef:90:63:d7:ef:d0:72:49:3e:5b:ad:b9:1b:d4:
                    2b:6f:86:68:dd:d5:73:12:b8:43:c9:dc:41:0f:a2:
                    a3:46:4f:8b:67:88:84:0f:61:fe:79:34:1f:4a:89:
                    1f:b7
                Exponent: 65537 (0x10001)
        X509v3 extensions:
            X509v3 Basic Constraints: 
                CA:FALSE
            X509v3 Subject Key Identifier: 
                E7:9B:E2:2A:AD:8A:6C:3A:CB:76:51:E5:8E:07:98:22:97:E1:73:A2
            X509v3 Authority Key Identifier: 
                B4:11:33:F1:D7:E2:5E:F7:53:9E:20:22:10:4F:86:06:BF:1F:C9:5E
    Signature Algorithm: sha256WithRSAEncryption
    Signature Value:
        65:31:07:f8:41:0d:f2:c0:19:d2:f0:09:93:02:67:d3:15:ae:
        cf:ea:7b:09:3a:1e:8a:e3:24:5b:fd:92:1b:f3:fd:60:ce:af:
        c8:e5:e6:45:c6:89:7f:1b:1f:77:3f:02:1f:5d:36:e1:38:cf:
        c6:5f:c7:7f:ae:fd:b0:82:df:e7:4d:d8:77:75:57:86:62:f3:
        18:6e:eb:99:c3:61:7b:5a:01:d2:95:57:09:81:0b:ba:59:2b:
        7f:dc:22:ff:e8:4c:14:c9:57:48:d6:9a:f3:38:92:ef:79:7d:
        aa:32:f3:0e:76:9f:c8:d9:73:05:a4:40:52:48:34:18:bf:4a:
        13:a3:9b:44:f6:39:d3:f3:4b:2f:ff:0a:13:30:cb:3c:94:fb:
        10:d3:04:7f:5f:ed:b8:3e:e9:4c:44:6d:bc:07:e2:30:dc:f2:
        e7:e6:3f:6d:9b:d8:e0:87:46:4e:82:5a:61:34:3f:ff:38:db:
        31:9e:5d:fc:6d:da:ba:23:71:43:d6:90:fc:0f:eb:95:ef:5c:
        b9:60:2d:5a:49:a8:00:0c:6d:5e:b6:36:44:58:87:c3:0e:89:
        2d:0c:c2:ed:9b:96:aa:ed:62:b0:c8:9f:91:36:20:b4:6d:60:
        36:7f:d7:5f:16:aa:36:f1:7f:c4:eb:9f:8c:7e:bc:29:5a:aa:
        69:d1:85:5a
-----BEGIN CERTIFICATE-----
MIIDYjCCAkqgAwIBAgIUfocuMPWNCtUNDcVkA6rnS9/JtvkwDQYJKoZIhvcNAQEL
BQAwOTELMAkGA1UEBhMCQVUxFzAVBgNVBAoMDkRvZGd5IEJyb3RoZXJzMREwDwYD
VQQDDAhEb2RneSBDQTAeFw0yMzA4MDExOTM1NTJaFw0yNDA3MzExOTM1NTJaME4x
CzAJBgNVBAYTAkFVMRcwFQYDVQQKDA5Eb2RneSBCcm90aGVyczESMBAGA1UEAwwJ
QnJvdGhlciAxMRIwEAYDVQQDDAlCcm90aGVyIDIwggEiMA0GCSqGSIb3DQEBAQUA
A4IBDwAwggEKAoIBAQCo/4lYYYWu3tssD9Vz++K3qBt6dWAr1H08c3a1rt6TL38k
kG3JHPSKOM2fooAWVsu0LLuT5Rcf/w3GQ/4xNPgo2HXpo7uIgu+jcuJTYgVFTeAx
l++qnRDSWA2eBp4yuxsIVl1lDz9mjsI2oBH/wFk1/Ukc3RxCMwZ4rgQ4I+XndWfT
lK1aqUAfrFkQ9QzBZK1KxMY1U7OWaoIbFYvRmavknm+UqtKW5Vf7jJFkijwkFsbS
Gb6CYBM7YrDtPh2zyvlr3zG5ep5LR2inKcc/SuIiJ7TvkGPX79ByST5brbkb1Ctv
hmjd1XMSuEPJ3EEPoqNGT4tniIQPYf55NB9KiR+3AgMBAAGjTTBLMAkGA1UdEwQC
MAAwHQYDVR0OBBYEFOeb4iqtimw6y3ZR5Y4HmCKX4XOiMB8GA1UdIwQYMBaAFLQR
M/HX4l73U54gIhBPhga/H8leMA0GCSqGSIb3DQEBCwUAA4IBAQBlMQf4QQ3ywBnS
8AmTAmfTFa7P6nsJOh6K4yRb/ZIb8/1gzq/I5eZFxol/Gx93PwIfXTbhOM/GX8d/
rv2wgt/nTdh3dVeGYvMYbuuZw2F7WgHSlVcJgQu6WSt/3CL/6EwUyVdI1przOJLv
eX2qMvMOdp/I2XMFpEBSSDQYv0oTo5tE9jnT80sv/woTMMs8lPsQ0wR/X+24PulM
RG28B+Iw3PLn5j9tm9jgh0ZOglphND//ONsxnl38bdq6I3FD1pD8D+uV71y5YC1a
SagADG1etjZEWIfDDoktDMLtm5aq7WKwyJ+RNiC0bWA2f9dfFqo28X/E65+Mfrwp
Wqpp0YVa
-----END CERTIFICATE-----
