Certificate:
    Data:
        Version: 3 (0x2)
        Serial Number:
            7e:87:2e:30:f5:8d:0a:d5:0d:0d:c5:64:03:aa:e7:4b:df:c9:b7:02
        Signature Algorithm: sha1WithRSAEncryption
        Issuer: C=AU, O=Dodgy Brothers, CN=Dodgy CA
        Validity
            Not Before: Aug  1 19:35:55 2023 GMT
            Not After : Jul 31 19:35:55 2024 GMT
        Subject: C=AU, O=Dodgy Brothers, CN=Brother 1, CN=both_utctime
        Subject Public Key Info:
            Public Key Algorithm: rsaEncryption
                Public-Key: (2048 bit)
                Modulus:
                    00:be:95:86:fa:71:4c:6a:ea:51:98:50:4b:99:a1:
                    2c:66:15:f3:60:f3:e1:ff:69:fb:ce:48:01:1d:fe:
                    e1:2c:38:b0:e3:bd:8f:4b:48:a7:7e:3a:c6:73:e3:
                    ab:bf:e1:da:6e:96:f5:fe:c3:e4:b4:a8:ad:bc:56:
                    34:d4:96:25:74:27:c3:10:db:35:10:25:1c:8e:4b:
                    81:9b:fb:42:04:7c:6f:3d:e2:38:6c:0e:e4:2e:8e:
                    2a:18:6d:30:cd:67:2a:23:6b:37:cf:05:9f:cc:b7:
                    59:58:7f:ba:c4:0a:3f:8c:a4:ad:cb:98:9c:c0:f2:
                    8f:69:67:0f:c1:4e:33:cf:fc:85:5e:bb:5e:cf:93:
                    b0:cf:d9:f4:52:79:87:b1:f8:4d:15:68:65:d5:b7:
                    19:08:63:7f:5e:b1:34:ad:05:8f:5a:f0:e4:e1:8f:
                    25:f2:5c:5c:61:95:b0:56:2d:31:2b:08:65:79:e5:
                    b1:3b:9d:3e:b9:52:4b:ac:5d:c4:58:66:85:8d:81:
                    b3:04:28:f4:3f:2f:ac:92:01:62:d5:fd:8e:0b:da:
                    02:0c:7a:c7:6e:09:1c:ac:1c:b2:4c:d7:54:b8:26:
                    33:b2:5f:14:f3:b1:f9:3d:62:4d:40:99:6b:b6:e7:
                    89:58:97:d6:d4:4d:ea:4b:68:52:f3:3c:a8:b1:35:
                    88:db
                Exponent: 65537 (0x10001)
        X509v3 extensions:
            X509v3 Subject Key Identifier: 
                A1:DF:33:C3:CF:3E:53:41:A7:68:44:CC:AA:19:E1:84:C9:0D:BC:C6
            X509v3 Authority Key Identifier: 
                keyid:B4:11:33:F1:D7:E2:5E:F7:53:9E:20:22:10:4F:86:06:BF:1F:C9:5E
                DirName:/C=AU/O=Dodgy Brothers/CN=Dodgy CA
                serial:0B:5B:6B:16:76:E2:18:5A:5C:5A:A4:01:8B:6B:6F:7C:F6:8C:85:C0
            X509v3 Basic Constraints: critical
                CA:TRUE, pathlen:1
            X509v3 Key Usage: 
                Certificate Sign, CRL Sign
            X509v3 Issuer Alternative Name: 
                <EMPTY>

    Signature Algorithm: sha1WithRSAEncryption
    Signature Value:
        8b:c8:b5:15:4d:8e:49:ea:64:67:24:d9:c3:37:fc:35:24:b9:
        18:a3:5d:6e:a3:26:d4:3f:39:3f:19:d2:19:41:a5:a0:80:2a:
        74:05:83:66:c9:13:33:48:0f:47:6c:5d:fe:68:42:7b:ae:46:
        8d:35:ca:20:1c:94:2c:81:c6:d5:b2:16:44:2e:18:a1:a8:1e:
        fa:d1:07:be:4a:09:d2:03:74:b4:0d:5d:07:9a:21:8f:78:24:
        12:e2:dd:c0:66:c9:99:0c:a7:82:9c:ee:0a:92:f6:b0:6f:ba:
        66:3e:97:b7:ba:15:a0:f8:3f:ac:16:0a:54:28:68:5a:9a:57:
        57:8c:f1:25:5e:31:b5:f0:e6:99:08:44:3a:bc:cb:ca:8d:b0:
        de:ef:f1:55:33:75:e3:a4:90:76:66:18:b9:7b:20:8f:dc:e8:
        7d:5a:cf:dd:e4:bd:59:8d:3a:b6:43:05:b6:c2:9c:1c:52:18:
        5d:f3:15:d0:a6:23:4b:0d:a3:16:4c:63:b9:29:81:7c:30:67:
        74:7c:a8:31:70:76:6f:5b:2e:7b:25:df:0c:df:a2:f2:5f:03:
        b7:e2:68:f8:89:e5:c8:38:6b:20:ad:85:35:ca:ff:bd:97:a4:
        78:25:b0:cb:2a:27:4f:96:cc:cf:0e:13:42:50:5a:d9:a3:39:
        ec:ed:03:c5
-----BEGIN CERTIFICATE-----
MIID3TCCAsWgAwIBAgIUfocuMPWNCtUNDcVkA6rnS9/JtwIwDQYJKoZIhvcNAQEF
BQAwOTELMAkGA1UEBhMCQVUxFzAVBgNVBAoMDkRvZGd5IEJyb3RoZXJzMREwDwYD
VQQDDAhEb2RneSBDQTAeFw0yMzA4MDExOTM1NTVaFw0yNDA3MzExOTM1NTVaMFEx
CzAJBgNVBAYTAkFVMRcwFQYDVQQKDA5Eb2RneSBCcm90aGVyczESMBAGA1UEAwwJ
QnJvdGhlciAxMRUwEwYDVQQDDAxib3RoX3V0Y3RpbWUwggEiMA0GCSqGSIb3DQEB
AQUAA4IBDwAwggEKAoIBAQC+lYb6cUxq6lGYUEuZoSxmFfNg8+H/afvOSAEd/uEs
OLDjvY9LSKd+OsZz46u/4dpulvX+w+S0qK28VjTUliV0J8MQ2zUQJRyOS4Gb+0IE
fG894jhsDuQujioYbTDNZyojazfPBZ/Mt1lYf7rECj+MpK3LmJzA8o9pZw/BTjPP
/IVeu17Pk7DP2fRSeYex+E0VaGXVtxkIY39esTStBY9a8OThjyXyXFxhlbBWLTEr
CGV55bE7nT65UkusXcRYZoWNgbMEKPQ/L6ySAWLV/Y4L2gIMesduCRysHLJM11S4
JjOyXxTzsfk9Yk1AmWu254lYl9bUTepLaFLzPKixNYjbAgMBAAGjgcQwgcEwHQYD
VR0OBBYEFKHfM8PPPlNBp2hEzKoZ4YTJDbzGMHQGA1UdIwRtMGuAFLQRM/HX4l73
U54gIhBPhga/H8leoT2kOzA5MQswCQYDVQQGEwJBVTEXMBUGA1UECgwORG9kZ3kg
QnJvdGhlcnMxETAPBgNVBAMMCERvZGd5IENBghQLW2sWduIYWlxapAGLa2989oyF
wDASBgNVHRMBAf8ECDAGAQH/AgEBMAsGA1UdDwQEAwIBBjAJBgNVHRIEAjAAMA0G
CSqGSIb3DQEBBQUAA4IBAQCLyLUVTY5J6mRnJNnDN/w1JLkYo11uoybUPzk/GdIZ
QaWggCp0BYNmyRMzSA9HbF3+aEJ7rkaNNcogHJQsgcbVshZELhihqB760Qe+SgnS
A3S0DV0HmiGPeCQS4t3AZsmZDKeCnO4Kkvawb7pmPpe3uhWg+D+sFgpUKGhamldX
jPElXjG18OaZCEQ6vMvKjbDe7/FVM3XjpJB2Zhi5eyCP3Oh9Ws/d5L1ZjTq2QwW2
wpwcUhhd8xXQpiNLDaMWTGO5KYF8MGd0fKgxcHZvWy57Jd8M36LyXwO34mj4ieXI
OGsgrYU1yv+9l6R4JbDLKidPlszPDhNCUFrZozns7QPF
-----END CERTIFICATE-----
