Certificate:
    Data:
        Version: 3 (0x2)
        Serial Number:
            7e:87:2e:30:f5:8d:0a:d5:0d:0d:c5:64:03:aa:e7:4b:df:c9:b7:03
        Signature Algorithm: sha1WithRSAEncryption
        Issuer: C=AU, O=Dodgy Brothers, CN=Dodgy CA
        Validity
            Not Before: Aug  1 19:35:55 2023 GMT
            Not After : Jul 31 19:35:55 2024 GMT
        Subject: C=AU, O=Dodgy Brothers, CN=Brother 1, CN=both_generalizedtime
        Subject Public Key Info:
            Public Key Algorithm: rsaEncryption
                Public-Key: (2048 bit)
                Modulus:
                    00:be:95:86:fa:71:4c:6a:ea:51:98:50:4b:99:a1:
                    2c:66:15:f3:60:f3:e1:ff:69:fb:ce:48:01:1d:fe:
                    e1:2c:38:b0:e3:bd:8f:4b:48:a7:7e:3a:c6:73:e3:
                    ab:bf:e1:da:6e:96:f5:fe:c3:e4:b4:a8:ad:bc:56:
                    34:d4:96:25:74:27:c3:10:db:35:10:25:1c:8e:4b:
                    81:9b:fb:42:04:7c:6f:3d:e2:38:6c:0e:e4:2e:8e:
                    2a:18:6d:30:cd:67:2a:23:6b:37:cf:05:9f:cc:b7:
                    59:58:7f:ba:c4:0a:3f:8c:a4:ad:cb:98:9c:c0:f2:
                    8f:69:67:0f:c1:4e:33:cf:fc:85:5e:bb:5e:cf:93:
                    b0:cf:d9:f4:52:79:87:b1:f8:4d:15:68:65:d5:b7:
                    19:08:63:7f:5e:b1:34:ad:05:8f:5a:f0:e4:e1:8f:
                    25:f2:5c:5c:61:95:b0:56:2d:31:2b:08:65:79:e5:
                    b1:3b:9d:3e:b9:52:4b:ac:5d:c4:58:66:85:8d:81:
                    b3:04:28:f4:3f:2f:ac:92:01:62:d5:fd:8e:0b:da:
                    02:0c:7a:c7:6e:09:1c:ac:1c:b2:4c:d7:54:b8:26:
                    33:b2:5f:14:f3:b1:f9:3d:62:4d:40:99:6b:b6:e7:
                    89:58:97:d6:d4:4d:ea:4b:68:52:f3:3c:a8:b1:35:
                    88:db
                Exponent: 65537 (0x10001)
        X509v3 extensions:
            X509v3 Subject Key Identifier: 
                A1:DF:33:C3:CF:3E:53:41:A7:68:44:CC:AA:19:E1:84:C9:0D:BC:C6
            X509v3 Authority Key Identifier: 
                keyid:B4:11:33:F1:D7:E2:5E:F7:53:9E:20:22:10:4F:86:06:BF:1F:C9:5E
                DirName:/C=AU/O=Dodgy Brothers/CN=Dodgy CA
                serial:0B:5B:6B:16:76:E2:18:5A:5C:5A:A4:01:8B:6B:6F:7C:F6:8C:85:C0
            X509v3 Basic Constraints: critical
                CA:TRUE, pathlen:1
            X509v3 Key Usage: 
                Certificate Sign, CRL Sign
            X509v3 Issuer Alternative Name: 
                <EMPTY>

    Signature Algorithm: sha1WithRSAEncryption
    Signature Value:
        12:c1:2e:06:ad:b2:88:f3:d6:14:2f:af:10:1f:28:21:7b:9b:
        4d:6d:b5:71:83:76:f2:33:3a:e7:e4:20:2f:89:2f:7c:67:ac:
        a9:c6:8d:dc:2c:e0:d6:ff:2f:33:9f:67:75:3f:b1:2a:79:f2:
        8c:ec:93:76:83:8c:15:61:c2:4a:c1:a3:b6:02:3c:80:9a:a9:
        75:e4:24:09:01:51:3b:b4:14:1e:55:48:3c:9c:dc:19:1f:bd:
        33:98:89:87:44:78:5f:cf:a5:62:4f:20:2a:2d:d5:f4:d5:87:
        92:59:c4:ae:79:6e:e1:58:88:1e:9a:76:96:fa:bb:b6:9e:f0:
        de:a9:bb:b6:6c:0d:8f:df:0d:13:89:1d:a8:d4:b4:4d:d1:c6:
        f6:11:8f:d4:69:f9:ce:62:10:51:9e:c4:3b:00:e3:00:cb:20:
        0f:30:2e:ef:4d:ce:e1:be:c8:a1:2a:aa:67:42:08:d5:06:44:
        c6:d5:84:a0:95:7a:27:bd:40:ea:e2:c0:0d:d0:78:f0:06:ff:
        78:ab:7d:38:53:6e:d2:f7:ed:d3:15:f8:83:d2:99:56:36:fb:
        5d:aa:1d:78:91:90:19:f0:5a:0b:98:4b:94:ed:40:4a:e0:b1:
        e7:df:0b:8f:7f:bc:c8:ab:c7:42:2c:cb:1e:41:74:72:32:64:
        ff:8e:90:20
-----BEGIN CERTIFICATE-----
MIID5TCCAs2gAwIBAgIUfocuMPWNCtUNDcVkA6rnS9/JtwMwDQYJKoZIhvcNAQEF
BQAwOTELMAkGA1UEBhMCQVUxFzAVBgNVBAoMDkRvZGd5IEJyb3RoZXJzMREwDwYD
VQQDDAhEb2RneSBDQTAeFw0yMzA4MDExOTM1NTVaFw0yNDA3MzExOTM1NTVaMFkx
CzAJBgNVBAYTAkFVMRcwFQYDVQQKDA5Eb2RneSBCcm90aGVyczESMBAGA1UEAwwJ
QnJvdGhlciAxMR0wGwYDVQQDDBRib3RoX2dlbmVyYWxpemVkdGltZTCCASIwDQYJ
KoZIhvcNAQEBBQADggEPADCCAQoCggEBAL6VhvpxTGrqUZhQS5mhLGYV82Dz4f9p
+85IAR3+4Sw4sOO9j0tIp346xnPjq7/h2m6W9f7D5LSorbxWNNSWJXQnwxDbNRAl
HI5LgZv7QgR8bz3iOGwO5C6OKhhtMM1nKiNrN88Fn8y3WVh/usQKP4ykrcuYnMDy
j2lnD8FOM8/8hV67Xs+TsM/Z9FJ5h7H4TRVoZdW3GQhjf16xNK0Fj1rw5OGPJfJc
XGGVsFYtMSsIZXnlsTudPrlSS6xdxFhmhY2BswQo9D8vrJIBYtX9jgvaAgx6x24J
HKwcskzXVLgmM7JfFPOx+T1iTUCZa7bniViX1tRN6ktoUvM8qLE1iNsCAwEAAaOB
xDCBwTAdBgNVHQ4EFgQUod8zw88+U0GnaETMqhnhhMkNvMYwdAYDVR0jBG0wa4AU
tBEz8dfiXvdTniAiEE+GBr8fyV6hPaQ7MDkxCzAJBgNVBAYTAkFVMRcwFQYDVQQK
DA5Eb2RneSBCcm90aGVyczERMA8GA1UEAwwIRG9kZ3kgQ0GCFAtbaxZ24hhaXFqk
AYtrb3z2jIXAMBIGA1UdEwEB/wQIMAYBAf8CAQEwCwYDVR0PBAQDAgEGMAkGA1Ud
EgQCMAAwDQYJKoZIhvcNAQEFBQADggEBABLBLgatsojz1hQvrxAfKCF7m01ttXGD
dvIzOufkIC+JL3xnrKnGjdws4Nb/LzOfZ3U/sSp58ozsk3aDjBVhwkrBo7YCPICa
qXXkJAkBUTu0FB5VSDyc3BkfvTOYiYdEeF/PpWJPICot1fTVh5JZxK55buFYiB6a
dpb6u7ae8N6pu7ZsDY/fDROJHajUtE3RxvYRj9Rp+c5iEFGexDsA4wDLIA8wLu9N
zuG+yKEqqmdCCNUGRMbVhKCVeie9QOriwA3QePAG/3irfThTbtL37dMV+IPSmVY2
+12qHXiRkBnwWguYS5TtQErgseffC49/vMirx0Isyx5BdHIyZP+OkCA=
-----END CERTIFICATE-----
