Certificate:
    Data:
        Version: 3 (0x2)
        Serial Number:
            7e:87:2e:30:f5:8d:0a:d5:0d:0d:c5:64:03:aa:e7:4b:df:c9:b6:fe
        Signature Algorithm: sha1WithRSAEncryption
        Issuer: C=AU, O=Dodgy Brothers, CN=Dodgy CA
        Validity
            Not Before: Aug  1 19:35:54 2023 GMT
            Not After : Jul 31 19:35:54 2024 GMT
        Subject: C=AU, O=Dodgy Brothers, CN=Brother 1, CN=lastupdate_generalizedtime
        Subject Public Key Info:
            Public Key Algorithm: rsaEncryption
                Public-Key: (2048 bit)
                Modulus:
                    00:be:95:86:fa:71:4c:6a:ea:51:98:50:4b:99:a1:
                    2c:66:15:f3:60:f3:e1:ff:69:fb:ce:48:01:1d:fe:
                    e1:2c:38:b0:e3:bd:8f:4b:48:a7:7e:3a:c6:73:e3:
                    ab:bf:e1:da:6e:96:f5:fe:c3:e4:b4:a8:ad:bc:56:
                    34:d4:96:25:74:27:c3:10:db:35:10:25:1c:8e:4b:
                    81:9b:fb:42:04:7c:6f:3d:e2:38:6c:0e:e4:2e:8e:
                    2a:18:6d:30:cd:67:2a:23:6b:37:cf:05:9f:cc:b7:
                    59:58:7f:ba:c4:0a:3f:8c:a4:ad:cb:98:9c:c0:f2:
                    8f:69:67:0f:c1:4e:33:cf:fc:85:5e:bb:5e:cf:93:
                    b0:cf:d9:f4:52:79:87:b1:f8:4d:15:68:65:d5:b7:
                    19:08:63:7f:5e:b1:34:ad:05:8f:5a:f0:e4:e1:8f:
                    25:f2:5c:5c:61:95:b0:56:2d:31:2b:08:65:79:e5:
                    b1:3b:9d:3e:b9:52:4b:ac:5d:c4:58:66:85:8d:81:
                    b3:04:28:f4:3f:2f:ac:92:01:62:d5:fd:8e:0b:da:
                    02:0c:7a:c7:6e:09:1c:ac:1c:b2:4c:d7:54:b8:26:
                    33:b2:5f:14:f3:b1:f9:3d:62:4d:40:99:6b:b6:e7:
                    89:58:97:d6:d4:4d:ea:4b:68:52:f3:3c:a8:b1:35:
                    88:db
                Exponent: 65537 (0x10001)
        X509v3 extensions:
            X509v3 Subject Key Identifier: 
                A1:DF:33:C3:CF:3E:53:41:A7:68:44:CC:AA:19:E1:84:C9:0D:BC:C6
            X509v3 Authority Key Identifier: 
                keyid:B4:11:33:F1:D7:E2:5E:F7:53:9E:20:22:10:4F:86:06:BF:1F:C9:5E
                DirName:/C=AU/O=Dodgy Brothers/CN=Dodgy CA
                serial:0B:5B:6B:16:76:E2:18:5A:5C:5A:A4:01:8B:6B:6F:7C:F6:8C:85:C0
            X509v3 Basic Constraints: critical
                CA:TRUE, pathlen:1
            X509v3 Key Usage: 
                Certificate Sign, CRL Sign
            X509v3 Issuer Alternative Name: 
                <EMPTY>

    Signature Algorithm: sha1WithRSAEncryption
    Signature Value:
        72:15:05:2e:25:75:6f:54:d5:83:a2:41:cc:71:e6:a4:e1:9f:
        31:90:51:de:85:3a:35:62:45:a8:7a:ab:f2:a7:05:ec:bc:d5:
        10:9a:76:5a:b2:2f:eb:09:fd:ca:0e:74:c2:2a:45:95:0c:32:
        ac:ce:a6:7c:d2:25:8b:19:f4:ae:7f:1b:c4:d5:d8:48:e5:6b:
        40:6f:1c:eb:d9:03:6f:be:82:b1:73:5c:24:4b:2b:70:21:ae:
        9a:97:b7:5b:b6:6e:b7:5f:6c:fe:52:b0:51:b4:2c:cb:33:77:
        dc:32:5f:0f:54:c7:5e:fe:9d:c2:32:a3:a9:0e:1e:77:30:1c:
        ec:bb:dc:b5:2e:3f:22:47:bb:f9:aa:21:01:0d:ff:0f:82:82:
        78:e4:c4:be:66:4e:59:86:a1:6b:1b:15:54:ea:ec:dc:1d:b4:
        7e:07:75:42:da:73:0c:7e:7a:b0:8d:82:f1:8f:ee:63:93:f7:
        41:99:19:e2:33:01:a4:9b:32:cd:29:d7:43:8f:90:1e:19:73:
        95:96:90:dd:ce:fa:44:69:03:18:d6:c0:14:1b:37:d5:f5:3d:
        23:56:09:32:e0:b2:b7:16:d1:0c:4f:48:fd:67:d5:51:e7:63:
        83:6f:ed:2a:96:f9:27:e0:3a:6a:2d:dc:e2:8f:08:cc:19:20:
        11:e1:c0:7f
-----BEGIN CERTIFICATE-----
MIID6zCCAtOgAwIBAgIUfocuMPWNCtUNDcVkA6rnS9/Jtv4wDQYJKoZIhvcNAQEF
BQAwOTELMAkGA1UEBhMCQVUxFzAVBgNVBAoMDkRvZGd5IEJyb3RoZXJzMREwDwYD
VQQDDAhEb2RneSBDQTAeFw0yMzA4MDExOTM1NTRaFw0yNDA3MzExOTM1NTRaMF8x
CzAJBgNVBAYTAkFVMRcwFQYDVQQKDA5Eb2RneSBCcm90aGVyczESMBAGA1UEAwwJ
QnJvdGhlciAxMSMwIQYDVQQDDBpsYXN0dXBkYXRlX2dlbmVyYWxpemVkdGltZTCC
ASIwDQYJKoZIhvcNAQEBBQADggEPADCCAQoCggEBAL6VhvpxTGrqUZhQS5mhLGYV
82Dz4f9p+85IAR3+4Sw4sOO9j0tIp346xnPjq7/h2m6W9f7D5LSorbxWNNSWJXQn
wxDbNRAlHI5LgZv7QgR8bz3iOGwO5C6OKhhtMM1nKiNrN88Fn8y3WVh/usQKP4yk
rcuYnMDyj2lnD8FOM8/8hV67Xs+TsM/Z9FJ5h7H4TRVoZdW3GQhjf16xNK0Fj1rw
5OGPJfJcXGGVsFYtMSsIZXnlsTudPrlSS6xdxFhmhY2BswQo9D8vrJIBYtX9jgva
Agx6x24JHKwcskzXVLgmM7JfFPOx+T1iTUCZa7bniViX1tRN6ktoUvM8qLE1iNsC
AwEAAaOBxDCBwTAdBgNVHQ4EFgQUod8zw88+U0GnaETMqhnhhMkNvMYwdAYDVR0j
BG0wa4AUtBEz8dfiXvdTniAiEE+GBr8fyV6hPaQ7MDkxCzAJBgNVBAYTAkFVMRcw
FQYDVQQKDA5Eb2RneSBCcm90aGVyczERMA8GA1UEAwwIRG9kZ3kgQ0GCFAtbaxZ2
4hhaXFqkAYtrb3z2jIXAMBIGA1UdEwEB/wQIMAYBAf8CAQEwCwYDVR0PBAQDAgEG
MAkGA1UdEgQCMAAwDQYJKoZIhvcNAQEFBQADggEBAHIVBS4ldW9U1YOiQcxx5qTh
nzGQUd6FOjViRah6q/KnBey81RCadlqyL+sJ/coOdMIqRZUMMqzOpnzSJYsZ9K5/
G8TV2Ejla0BvHOvZA2++grFzXCRLK3AhrpqXt1u2brdfbP5SsFG0LMszd9wyXw9U
x17+ncIyo6kOHncwHOy73LUuPyJHu/mqIQEN/w+CgnjkxL5mTlmGoWsbFVTq7Nwd
tH4HdULacwx+erCNgvGP7mOT90GZGeIzAaSbMs0p10OPkB4Zc5WWkN3O+kRpAxjW
wBQbN9X1PSNWCTLgsrcW0QxPSP1n1VHnY4Nv7SqW+SfgOmot3OKPCMwZIBHhwH8=
-----END CERTIFICATE-----
