Certificate:
    Data:
        Version: 3 (0x2)
        Serial Number:
            7e:87:2e:30:f5:8d:0a:d5:0d:0d:c5:64:03:aa:e7:4b:df:c9:b6:fc
        Signature Algorithm: sha1WithRSAEncryption
        Issuer: C=AU, O=Dodgy Brothers, CN=Dodgy CA
        Validity
            Not Before: Aug  1 19:35:53 2023 GMT
            Not After : Jul 31 19:35:53 2024 GMT
        Subject: C=AU, O=Dodgy Brothers, CN=Brother 1, CN=lastupdate_invalid
        Subject Public Key Info:
            Public Key Algorithm: rsaEncryption
                Public-Key: (2048 bit)
                Modulus:
                    00:be:95:86:fa:71:4c:6a:ea:51:98:50:4b:99:a1:
                    2c:66:15:f3:60:f3:e1:ff:69:fb:ce:48:01:1d:fe:
                    e1:2c:38:b0:e3:bd:8f:4b:48:a7:7e:3a:c6:73:e3:
                    ab:bf:e1:da:6e:96:f5:fe:c3:e4:b4:a8:ad:bc:56:
                    34:d4:96:25:74:27:c3:10:db:35:10:25:1c:8e:4b:
                    81:9b:fb:42:04:7c:6f:3d:e2:38:6c:0e:e4:2e:8e:
                    2a:18:6d:30:cd:67:2a:23:6b:37:cf:05:9f:cc:b7:
                    59:58:7f:ba:c4:0a:3f:8c:a4:ad:cb:98:9c:c0:f2:
                    8f:69:67:0f:c1:4e:33:cf:fc:85:5e:bb:5e:cf:93:
                    b0:cf:d9:f4:52:79:87:b1:f8:4d:15:68:65:d5:b7:
                    19:08:63:7f:5e:b1:34:ad:05:8f:5a:f0:e4:e1:8f:
                    25:f2:5c:5c:61:95:b0:56:2d:31:2b:08:65:79:e5:
                    b1:3b:9d:3e:b9:52:4b:ac:5d:c4:58:66:85:8d:81:
                    b3:04:28:f4:3f:2f:ac:92:01:62:d5:fd:8e:0b:da:
                    02:0c:7a:c7:6e:09:1c:ac:1c:b2:4c:d7:54:b8:26:
                    33:b2:5f:14:f3:b1:f9:3d:62:4d:40:99:6b:b6:e7:
                    89:58:97:d6:d4:4d:ea:4b:68:52:f3:3c:a8:b1:35:
                    88:db
                Exponent: 65537 (0x10001)
        X509v3 extensions:
            X509v3 Subject Key Identifier: 
                A1:DF:33:C3:CF:3E:53:41:A7:68:44:CC:AA:19:E1:84:C9:0D:BC:C6
            X509v3 Authority Key Identifier: 
                keyid:B4:11:33:F1:D7:E2:5E:F7:53:9E:20:22:10:4F:86:06:BF:1F:C9:5E
                DirName:/C=AU/O=Dodgy Brothers/CN=Dodgy CA
                serial:0B:5B:6B:16:76:E2:18:5A:5C:5A:A4:01:8B:6B:6F:7C:F6:8C:85:C0
            X509v3 Basic Constraints: critical
                CA:TRUE, pathlen:1
            X509v3 Key Usage: 
                Certificate Sign, CRL Sign
            X509v3 Issuer Alternative Name: 
                <EMPTY>

    Signature Algorithm: sha1WithRSAEncryption
    Signature Value:
        41:77:dd:e2:ae:66:c4:94:a9:ae:64:19:19:3c:ec:16:79:42:
        d6:d8:d2:e7:4c:4b:cb:b6:83:37:5d:38:e4:1c:c8:04:0f:27:
        f2:4e:24:e1:cd:35:fd:cc:1f:01:f7:f3:d0:28:1a:fa:ca:df:
        5a:5e:f9:52:94:e7:57:0a:21:52:7d:d3:0c:53:71:5f:1f:1d:
        9b:e1:41:ab:84:f1:2c:3e:34:7a:57:23:8d:78:2c:14:d8:dd:
        b5:bc:47:0f:61:96:57:d3:f9:01:a3:6e:a6:1c:dc:e8:c1:68:
        3a:b4:af:35:04:d3:3b:6a:69:df:ca:d5:b7:86:f5:31:79:51:
        3a:72:8d:28:e5:ac:09:a3:4f:9c:49:c5:38:29:f9:c6:3c:21:
        cd:59:9e:8f:eb:4d:18:eb:12:33:f7:a4:34:27:e1:32:d8:6a:
        90:8a:9d:40:58:f3:d9:d4:60:f8:12:6a:f9:9a:95:b6:01:6a:
        5f:2e:00:24:fb:8d:78:0e:30:4c:0c:63:7c:28:1b:d9:a7:eb:
        44:63:e6:ad:5b:88:79:7f:85:41:68:a0:33:12:ad:a0:0c:d4:
        d3:6b:51:5c:39:0f:bc:87:82:9c:9a:df:de:f6:79:a6:fe:66:
        8f:e8:9a:8e:61:e1:59:d4:96:b2:c5:f0:67:d6:4e:cf:34:56:
        70:2b:44:1c
-----BEGIN CERTIFICATE-----
MIID4zCCAsugAwIBAgIUfocuMPWNCtUNDcVkA6rnS9/JtvwwDQYJKoZIhvcNAQEF
BQAwOTELMAkGA1UEBhMCQVUxFzAVBgNVBAoMDkRvZGd5IEJyb3RoZXJzMREwDwYD
VQQDDAhEb2RneSBDQTAeFw0yMzA4MDExOTM1NTNaFw0yNDA3MzExOTM1NTNaMFcx
CzAJBgNVBAYTAkFVMRcwFQYDVQQKDA5Eb2RneSBCcm90aGVyczESMBAGA1UEAwwJ
QnJvdGhlciAxMRswGQYDVQQDDBJsYXN0dXBkYXRlX2ludmFsaWQwggEiMA0GCSqG
SIb3DQEBAQUAA4IBDwAwggEKAoIBAQC+lYb6cUxq6lGYUEuZoSxmFfNg8+H/afvO
SAEd/uEsOLDjvY9LSKd+OsZz46u/4dpulvX+w+S0qK28VjTUliV0J8MQ2zUQJRyO
S4Gb+0IEfG894jhsDuQujioYbTDNZyojazfPBZ/Mt1lYf7rECj+MpK3LmJzA8o9p
Zw/BTjPP/IVeu17Pk7DP2fRSeYex+E0VaGXVtxkIY39esTStBY9a8OThjyXyXFxh
lbBWLTErCGV55bE7nT65UkusXcRYZoWNgbMEKPQ/L6ySAWLV/Y4L2gIMesduCRys
HLJM11S4JjOyXxTzsfk9Yk1AmWu254lYl9bUTepLaFLzPKixNYjbAgMBAAGjgcQw
gcEwHQYDVR0OBBYEFKHfM8PPPlNBp2hEzKoZ4YTJDbzGMHQGA1UdIwRtMGuAFLQR
M/HX4l73U54gIhBPhga/H8leoT2kOzA5MQswCQYDVQQGEwJBVTEXMBUGA1UECgwO
RG9kZ3kgQnJvdGhlcnMxETAPBgNVBAMMCERvZGd5IENBghQLW2sWduIYWlxapAGL
a2989oyFwDASBgNVHRMBAf8ECDAGAQH/AgEBMAsGA1UdDwQEAwIBBjAJBgNVHRIE
AjAAMA0GCSqGSIb3DQEBBQUAA4IBAQBBd93irmbElKmuZBkZPOwWeULW2NLnTEvL
toM3XTjkHMgEDyfyTiThzTX9zB8B9/PQKBr6yt9aXvlSlOdXCiFSfdMMU3FfHx2b
4UGrhPEsPjR6VyONeCwU2N21vEcPYZZX0/kBo26mHNzowWg6tK81BNM7amnfytW3
hvUxeVE6co0o5awJo0+cScU4KfnGPCHNWZ6P600Y6xIz96Q0J+Ey2GqQip1AWPPZ
1GD4Emr5mpW2AWpfLgAk+414DjBMDGN8KBvZp+tEY+atW4h5f4VBaKAzEq2gDNTT
a1FcOQ+8h4Kcmt/e9nmm/maP6JqOYeFZ1JayxfBn1k7PNFZwK0Qc
-----END CERTIFICATE-----
