Certificate:
    Data:
        Version: 3 (0x2)
        Serial Number:
            7e:87:2e:30:f5:8d:0a:d5:0d:0d:c5:64:03:aa:e7:4b:df:c9:b6:fd
        Signature Algorithm: sha1WithRSAEncryption
        Issuer: C=AU, O=Dodgy Brothers, CN=Dodgy CA
        Validity
            Not Before: Aug  1 19:35:54 2023 GMT
            Not After : Jul 31 19:35:54 2024 GMT
        Subject: C=AU, O=Dodgy Brothers, CN=Brother 1, CN=lastupdate_utctime
        Subject Public Key Info:
            Public Key Algorithm: rsaEncryption
                Public-Key: (2048 bit)
                Modulus:
                    00:be:95:86:fa:71:4c:6a:ea:51:98:50:4b:99:a1:
                    2c:66:15:f3:60:f3:e1:ff:69:fb:ce:48:01:1d:fe:
                    e1:2c:38:b0:e3:bd:8f:4b:48:a7:7e:3a:c6:73:e3:
                    ab:bf:e1:da:6e:96:f5:fe:c3:e4:b4:a8:ad:bc:56:
                    34:d4:96:25:74:27:c3:10:db:35:10:25:1c:8e:4b:
                    81:9b:fb:42:04:7c:6f:3d:e2:38:6c:0e:e4:2e:8e:
                    2a:18:6d:30:cd:67:2a:23:6b:37:cf:05:9f:cc:b7:
                    59:58:7f:ba:c4:0a:3f:8c:a4:ad:cb:98:9c:c0:f2:
                    8f:69:67:0f:c1:4e:33:cf:fc:85:5e:bb:5e:cf:93:
                    b0:cf:d9:f4:52:79:87:b1:f8:4d:15:68:65:d5:b7:
                    19:08:63:7f:5e:b1:34:ad:05:8f:5a:f0:e4:e1:8f:
                    25:f2:5c:5c:61:95:b0:56:2d:31:2b:08:65:79:e5:
                    b1:3b:9d:3e:b9:52:4b:ac:5d:c4:58:66:85:8d:81:
                    b3:04:28:f4:3f:2f:ac:92:01:62:d5:fd:8e:0b:da:
                    02:0c:7a:c7:6e:09:1c:ac:1c:b2:4c:d7:54:b8:26:
                    33:b2:5f:14:f3:b1:f9:3d:62:4d:40:99:6b:b6:e7:
                    89:58:97:d6:d4:4d:ea:4b:68:52:f3:3c:a8:b1:35:
                    88:db
                Exponent: 65537 (0x10001)
        X509v3 extensions:
            X509v3 Subject Key Identifier: 
                A1:DF:33:C3:CF:3E:53:41:A7:68:44:CC:AA:19:E1:84:C9:0D:BC:C6
            X509v3 Authority Key Identifier: 
                keyid:B4:11:33:F1:D7:E2:5E:F7:53:9E:20:22:10:4F:86:06:BF:1F:C9:5E
                DirName:/C=AU/O=Dodgy Brothers/CN=Dodgy CA
                serial:0B:5B:6B:16:76:E2:18:5A:5C:5A:A4:01:8B:6B:6F:7C:F6:8C:85:C0
            X509v3 Basic Constraints: critical
                CA:TRUE, pathlen:1
            X509v3 Key Usage: 
                Certificate Sign, CRL Sign
            X509v3 Issuer Alternative Name: 
                <EMPTY>

    Signature Algorithm: sha1WithRSAEncryption
    Signature Value:
        58:f0:79:c5:43:89:2b:ce:9c:9f:90:e8:b3:fc:5d:e6:2a:35:
        7a:74:65:fa:a2:0a:e3:ea:da:46:1e:d5:79:41:6e:58:fd:1e:
        72:a2:ed:2f:3e:fe:22:87:c4:58:0f:3d:56:43:e3:09:5a:56:
        88:f5:40:b6:3c:7f:43:a7:c1:41:14:8c:4e:8d:0f:da:67:9d:
        6a:3d:d2:8f:68:b5:79:ef:e1:0f:1a:36:ca:85:16:e4:ad:2d:
        c9:c0:e8:9b:9a:c1:84:0e:cf:92:ad:67:b4:4f:6a:3c:ca:69:
        32:f7:2b:9a:39:ae:b0:a0:34:67:0b:f9:88:68:c3:70:d8:6d:
        4a:42:cd:a2:2b:c0:30:bf:fd:e5:70:57:66:6d:3f:49:73:2b:
        93:5f:1c:23:1c:55:31:73:47:67:66:2f:49:5b:e6:12:6a:7f:
        4a:0f:1d:f2:9f:a7:87:dd:25:f3:9d:d1:57:a6:e8:17:7b:b7:
        74:1d:90:cb:d2:70:7f:63:ab:67:24:a6:29:b3:71:a7:03:c4:
        85:9a:9a:88:96:1c:65:98:21:d6:2c:d5:4d:c5:88:11:35:33:
        e5:ec:0a:f6:52:64:d7:e1:5f:59:4f:5a:24:08:88:46:43:2b:
        69:bb:29:df:3b:7f:ec:31:53:64:60:8f:a3:f8:62:5e:0e:cc:
        6a:ac:1f:cb
-----BEGIN CERTIFICATE-----
MIID4zCCAsugAwIBAgIUfocuMPWNCtUNDcVkA6rnS9/Jtv0wDQYJKoZIhvcNAQEF
BQAwOTELMAkGA1UEBhMCQVUxFzAVBgNVBAoMDkRvZGd5IEJyb3RoZXJzMREwDwYD
VQQDDAhEb2RneSBDQTAeFw0yMzA4MDExOTM1NTRaFw0yNDA3MzExOTM1NTRaMFcx
CzAJBgNVBAYTAkFVMRcwFQYDVQQKDA5Eb2RneSBCcm90aGVyczESMBAGA1UEAwwJ
QnJvdGhlciAxMRswGQYDVQQDDBJsYXN0dXBkYXRlX3V0Y3RpbWUwggEiMA0GCSqG
SIb3DQEBAQUAA4IBDwAwggEKAoIBAQC+lYb6cUxq6lGYUEuZoSxmFfNg8+H/afvO
SAEd/uEsOLDjvY9LSKd+OsZz46u/4dpulvX+w+S0qK28VjTUliV0J8MQ2zUQJRyO
S4Gb+0IEfG894jhsDuQujioYbTDNZyojazfPBZ/Mt1lYf7rECj+MpK3LmJzA8o9p
Zw/BTjPP/IVeu17Pk7DP2fRSeYex+E0VaGXVtxkIY39esTStBY9a8OThjyXyXFxh
lbBWLTErCGV55bE7nT65UkusXcRYZoWNgbMEKPQ/L6ySAWLV/Y4L2gIMesduCRys
HLJM11S4JjOyXxTzsfk9Yk1AmWu254lYl9bUTepLaFLzPKixNYjbAgMBAAGjgcQw
gcEwHQYDVR0OBBYEFKHfM8PPPlNBp2hEzKoZ4YTJDbzGMHQGA1UdIwRtMGuAFLQR
M/HX4l73U54gIhBPhga/H8leoT2kOzA5MQswCQYDVQQGEwJBVTEXMBUGA1UECgwO
RG9kZ3kgQnJvdGhlcnMxETAPBgNVBAMMCERvZGd5IENBghQLW2sWduIYWlxapAGL
a2989oyFwDASBgNVHRMBAf8ECDAGAQH/AgEBMAsGA1UdDwQEAwIBBjAJBgNVHRIE
AjAAMA0GCSqGSIb3DQEBBQUAA4IBAQBY8HnFQ4krzpyfkOiz/F3mKjV6dGX6ogrj
6tpGHtV5QW5Y/R5you0vPv4ih8RYDz1WQ+MJWlaI9UC2PH9Dp8FBFIxOjQ/aZ51q
PdKPaLV57+EPGjbKhRbkrS3JwOibmsGEDs+SrWe0T2o8ymky9yuaOa6woDRnC/mI
aMNw2G1KQs2iK8Awv/3lcFdmbT9JcyuTXxwjHFUxc0dnZi9JW+YSan9KDx3yn6eH
3SXzndFXpugXe7d0HZDL0nB/Y6tnJKYps3GnA8SFmpqIlhxlmCHWLNVNxYgRNTPl
7Ar2UmTX4V9ZT1okCIhGQytpuynfO3/sMVNkYI+j+GJeDsxqrB/L
-----END CERTIFICATE-----
