Certificate:
    Data:
        Version: 3 (0x2)
        Serial Number:
            7e:87:2e:30:f5:8d:0a:d5:0d:0d:c5:64:03:aa:e7:4b:df:c9:b7:01
        Signature Algorithm: sha1WithRSAEncryption
        Issuer: C=AU, O=Dodgy Brothers, CN=Dodgy CA
        Validity
            Not Before: Aug  1 19:35:55 2023 GMT
            Not After : Jul 31 19:35:55 2024 GMT
        Subject: C=AU, O=Dodgy Brothers, CN=Brother 1, CN=nextupdate_generalizedtime
        Subject Public Key Info:
            Public Key Algorithm: rsaEncryption
                Public-Key: (2048 bit)
                Modulus:
                    00:be:95:86:fa:71:4c:6a:ea:51:98:50:4b:99:a1:
                    2c:66:15:f3:60:f3:e1:ff:69:fb:ce:48:01:1d:fe:
                    e1:2c:38:b0:e3:bd:8f:4b:48:a7:7e:3a:c6:73:e3:
                    ab:bf:e1:da:6e:96:f5:fe:c3:e4:b4:a8:ad:bc:56:
                    34:d4:96:25:74:27:c3:10:db:35:10:25:1c:8e:4b:
                    81:9b:fb:42:04:7c:6f:3d:e2:38:6c:0e:e4:2e:8e:
                    2a:18:6d:30:cd:67:2a:23:6b:37:cf:05:9f:cc:b7:
                    59:58:7f:ba:c4:0a:3f:8c:a4:ad:cb:98:9c:c0:f2:
                    8f:69:67:0f:c1:4e:33:cf:fc:85:5e:bb:5e:cf:93:
                    b0:cf:d9:f4:52:79:87:b1:f8:4d:15:68:65:d5:b7:
                    19:08:63:7f:5e:b1:34:ad:05:8f:5a:f0:e4:e1:8f:
                    25:f2:5c:5c:61:95:b0:56:2d:31:2b:08:65:79:e5:
                    b1:3b:9d:3e:b9:52:4b:ac:5d:c4:58:66:85:8d:81:
                    b3:04:28:f4:3f:2f:ac:92:01:62:d5:fd:8e:0b:da:
                    02:0c:7a:c7:6e:09:1c:ac:1c:b2:4c:d7:54:b8:26:
                    33:b2:5f:14:f3:b1:f9:3d:62:4d:40:99:6b:b6:e7:
                    89:58:97:d6:d4:4d:ea:4b:68:52:f3:3c:a8:b1:35:
                    88:db
                Exponent: 65537 (0x10001)
        X509v3 extensions:
            X509v3 Subject Key Identifier: 
                A1:DF:33:C3:CF:3E:53:41:A7:68:44:CC:AA:19:E1:84:C9:0D:BC:C6
            X509v3 Authority Key Identifier: 
                keyid:B4:11:33:F1:D7:E2:5E:F7:53:9E:20:22:10:4F:86:06:BF:1F:C9:5E
                DirName:/C=AU/O=Dodgy Brothers/CN=Dodgy CA
                serial:0B:5B:6B:16:76:E2:18:5A:5C:5A:A4:01:8B:6B:6F:7C:F6:8C:85:C0
            X509v3 Basic Constraints: critical
                CA:TRUE, pathlen:1
            X509v3 Key Usage: 
                Certificate Sign, CRL Sign
            X509v3 Issuer Alternative Name: 
                <EMPTY>

    Signature Algorithm: sha1WithRSAEncryption
    Signature Value:
        19:03:50:91:dd:54:ef:25:c0:df:eb:ab:6a:65:17:80:3e:b4:
        98:d6:60:3a:f2:1e:51:95:e8:80:9c:74:15:f6:c6:76:1a:6e:
        89:df:82:3a:8a:c2:0c:95:dc:4a:42:ab:46:db:7e:d7:71:1f:
        3d:24:90:19:1f:2d:eb:bd:58:f9:29:cf:ad:4f:1e:53:a1:7d:
        88:5d:8b:06:b9:00:e1:58:8b:67:8c:dd:b9:d1:51:fe:6c:5a:
        76:50:b9:19:2d:db:f0:35:5f:bb:1c:ed:4e:86:d7:65:b9:cf:
        21:e6:b4:fa:be:0d:0c:97:79:b6:8b:ec:52:e0:1d:2c:5a:f2:
        dd:32:4c:4e:f4:32:8c:ff:bf:13:a5:61:1c:be:32:11:6c:48:
        66:85:66:8b:85:72:73:38:df:c8:c3:3a:49:bd:8f:e1:d1:57:
        73:a2:ba:73:93:85:98:cd:73:cc:63:aa:86:3d:f5:fe:89:d0:
        80:3b:f9:76:ff:0f:df:5d:60:31:e0:95:26:d3:07:e5:03:f9:
        db:c7:04:b7:00:5d:40:6c:51:54:42:27:4a:af:21:1d:46:5e:
        d2:fa:ce:c5:66:28:20:9d:89:9c:e4:4a:90:e1:79:f0:3c:1a:
        23:10:47:40:7f:5c:a6:ac:33:5e:40:57:6b:02:9a:fe:87:27:
        07:26:5e:a9
-----BEGIN CERTIFICATE-----
MIID6zCCAtOgAwIBAgIUfocuMPWNCtUNDcVkA6rnS9/JtwEwDQYJKoZIhvcNAQEF
BQAwOTELMAkGA1UEBhMCQVUxFzAVBgNVBAoMDkRvZGd5IEJyb3RoZXJzMREwDwYD
VQQDDAhEb2RneSBDQTAeFw0yMzA4MDExOTM1NTVaFw0yNDA3MzExOTM1NTVaMF8x
CzAJBgNVBAYTAkFVMRcwFQYDVQQKDA5Eb2RneSBCcm90aGVyczESMBAGA1UEAwwJ
QnJvdGhlciAxMSMwIQYDVQQDDBpuZXh0dXBkYXRlX2dlbmVyYWxpemVkdGltZTCC
ASIwDQYJKoZIhvcNAQEBBQADggEPADCCAQoCggEBAL6VhvpxTGrqUZhQS5mhLGYV
82Dz4f9p+85IAR3+4Sw4sOO9j0tIp346xnPjq7/h2m6W9f7D5LSorbxWNNSWJXQn
wxDbNRAlHI5LgZv7QgR8bz3iOGwO5C6OKhhtMM1nKiNrN88Fn8y3WVh/usQKP4yk
rcuYnMDyj2lnD8FOM8/8hV67Xs+TsM/Z9FJ5h7H4TRVoZdW3GQhjf16xNK0Fj1rw
5OGPJfJcXGGVsFYtMSsIZXnlsTudPrlSS6xdxFhmhY2BswQo9D8vrJIBYtX9jgva
Agx6x24JHKwcskzXVLgmM7JfFPOx+T1iTUCZa7bniViX1tRN6ktoUvM8qLE1iNsC
AwEAAaOBxDCBwTAdBgNVHQ4EFgQUod8zw88+U0GnaETMqhnhhMkNvMYwdAYDVR0j
BG0wa4AUtBEz8dfiXvdTniAiEE+GBr8fyV6hPaQ7MDkxCzAJBgNVBAYTAkFVMRcw
FQYDVQQKDA5Eb2RneSBCcm90aGVyczERMA8GA1UEAwwIRG9kZ3kgQ0GCFAtbaxZ2
4hhaXFqkAYtrb3z2jIXAMBIGA1UdEwEB/wQIMAYBAf8CAQEwCwYDVR0PBAQDAgEG
MAkGA1UdEgQCMAAwDQYJKoZIhvcNAQEFBQADggEBABkDUJHdVO8lwN/rq2plF4A+
tJjWYDryHlGV6ICcdBX2xnYabonfgjqKwgyV3EpCq0bbftdxHz0kkBkfLeu9WPkp
z61PHlOhfYhdiwa5AOFYi2eM3bnRUf5sWnZQuRkt2/A1X7sc7U6G12W5zyHmtPq+
DQyXebaL7FLgHSxa8t0yTE70Moz/vxOlYRy+MhFsSGaFZouFcnM438jDOkm9j+HR
V3OiunOThZjNc8xjqoY99f6J0IA7+Xb/D99dYDHglSbTB+UD+dvHBLcAXUBsUVRC
J0qvIR1GXtL6zsVmKCCdiZzkSpDhefA8GiMQR0B/XKasM15AV2sCmv6HJwcmXqk=
-----END CERTIFICATE-----
