Certificate:
    Data:
        Version: 3 (0x2)
        Serial Number:
            7e:87:2e:30:f5:8d:0a:d5:0d:0d:c5:64:03:aa:e7:4b:df:c9:b6:ff
        Signature Algorithm: sha1WithRSAEncryption
        Issuer: C=AU, O=Dodgy Brothers, CN=Dodgy CA
        Validity
            Not Before: Aug  1 19:35:54 2023 GMT
            Not After : Jul 31 19:35:54 2024 GMT
        Subject: C=AU, O=Dodgy Brothers, CN=Brother 1, CN=nextupdate_invalid
        Subject Public Key Info:
            Public Key Algorithm: rsaEncryption
                Public-Key: (2048 bit)
                Modulus:
                    00:be:95:86:fa:71:4c:6a:ea:51:98:50:4b:99:a1:
                    2c:66:15:f3:60:f3:e1:ff:69:fb:ce:48:01:1d:fe:
                    e1:2c:38:b0:e3:bd:8f:4b:48:a7:7e:3a:c6:73:e3:
                    ab:bf:e1:da:6e:96:f5:fe:c3:e4:b4:a8:ad:bc:56:
                    34:d4:96:25:74:27:c3:10:db:35:10:25:1c:8e:4b:
                    81:9b:fb:42:04:7c:6f:3d:e2:38:6c:0e:e4:2e:8e:
                    2a:18:6d:30:cd:67:2a:23:6b:37:cf:05:9f:cc:b7:
                    59:58:7f:ba:c4:0a:3f:8c:a4:ad:cb:98:9c:c0:f2:
                    8f:69:67:0f:c1:4e:33:cf:fc:85:5e:bb:5e:cf:93:
                    b0:cf:d9:f4:52:79:87:b1:f8:4d:15:68:65:d5:b7:
                    19:08:63:7f:5e:b1:34:ad:05:8f:5a:f0:e4:e1:8f:
                    25:f2:5c:5c:61:95:b0:56:2d:31:2b:08:65:79:e5:
                    b1:3b:9d:3e:b9:52:4b:ac:5d:c4:58:66:85:8d:81:
                    b3:04:28:f4:3f:2f:ac:92:01:62:d5:fd:8e:0b:da:
                    02:0c:7a:c7:6e:09:1c:ac:1c:b2:4c:d7:54:b8:26:
                    33:b2:5f:14:f3:b1:f9:3d:62:4d:40:99:6b:b6:e7:
                    89:58:97:d6:d4:4d:ea:4b:68:52:f3:3c:a8:b1:35:
                    88:db
                Exponent: 65537 (0x10001)
        X509v3 extensions:
            X509v3 Subject Key Identifier: 
                A1:DF:33:C3:CF:3E:53:41:A7:68:44:CC:AA:19:E1:84:C9:0D:BC:C6
            X509v3 Authority Key Identifier: 
                keyid:B4:11:33:F1:D7:E2:5E:F7:53:9E:20:22:10:4F:86:06:BF:1F:C9:5E
                DirName:/C=AU/O=Dodgy Brothers/CN=Dodgy CA
                serial:0B:5B:6B:16:76:E2:18:5A:5C:5A:A4:01:8B:6B:6F:7C:F6:8C:85:C0
            X509v3 Basic Constraints: critical
                CA:TRUE, pathlen:1
            X509v3 Key Usage: 
                Certificate Sign, CRL Sign
            X509v3 Issuer Alternative Name: 
                <EMPTY>

    Signature Algorithm: sha1WithRSAEncryption
    Signature Value:
        42:6c:50:6e:af:3c:e1:01:c1:20:46:95:3b:27:78:d9:72:98:
        50:e3:03:79:64:c9:ef:53:0b:73:b2:df:d3:5e:1a:7f:bb:0b:
        6f:c6:a9:5a:e0:11:84:2f:39:b5:0d:f3:6c:7e:34:a5:43:e7:
        4a:4f:cf:ee:81:a4:ad:17:1d:93:2d:0c:b0:54:38:18:2b:fe:
        4d:b0:1f:44:58:25:a3:0a:23:de:56:89:a5:a0:a5:b1:2e:3b:
        56:a2:b7:e6:9b:de:35:33:6e:55:47:48:91:e2:92:92:fa:e5:
        fd:7b:3c:90:16:01:16:87:dd:1f:cf:65:2f:d2:1d:0d:4d:48:
        e7:e8:e0:df:aa:1a:dd:d6:c1:c3:dc:0c:ce:1f:32:d9:88:10:
        5e:1e:f4:e5:6d:9a:a1:1e:7b:45:ac:5c:87:25:1e:d4:2c:f4:
        42:c1:f7:ff:50:39:21:07:e0:63:57:cc:be:44:2a:ea:d2:cb:
        b2:5f:fc:7e:a1:37:f9:05:e9:c9:e5:bf:68:83:98:0c:d8:a4:
        f0:5a:8f:f4:aa:c9:65:3e:7b:bc:5e:37:8c:ae:44:04:eb:d7:
        05:a6:41:b4:44:dc:48:51:84:2a:b4:f5:3b:39:37:57:a1:0a:
        f2:ed:45:1d:9b:43:85:79:7a:13:2b:9d:cb:45:d2:5a:8b:b5:
        77:fd:50:48
-----BEGIN CERTIFICATE-----
MIID4zCCAsugAwIBAgIUfocuMPWNCtUNDcVkA6rnS9/Jtv8wDQYJKoZIhvcNAQEF
BQAwOTELMAkGA1UEBhMCQVUxFzAVBgNVBAoMDkRvZGd5IEJyb3RoZXJzMREwDwYD
VQQDDAhEb2RneSBDQTAeFw0yMzA4MDExOTM1NTRaFw0yNDA3MzExOTM1NTRaMFcx
CzAJBgNVBAYTAkFVMRcwFQYDVQQKDA5Eb2RneSBCcm90aGVyczESMBAGA1UEAwwJ
QnJvdGhlciAxMRswGQYDVQQDDBJuZXh0dXBkYXRlX2ludmFsaWQwggEiMA0GCSqG
SIb3DQEBAQUAA4IBDwAwggEKAoIBAQC+lYb6cUxq6lGYUEuZoSxmFfNg8+H/afvO
SAEd/uEsOLDjvY9LSKd+OsZz46u/4dpulvX+w+S0qK28VjTUliV0J8MQ2zUQJRyO
S4Gb+0IEfG894jhsDuQujioYbTDNZyojazfPBZ/Mt1lYf7rECj+MpK3LmJzA8o9p
Zw/BTjPP/IVeu17Pk7DP2fRSeYex+E0VaGXVtxkIY39esTStBY9a8OThjyXyXFxh
lbBWLTErCGV55bE7nT65UkusXcRYZoWNgbMEKPQ/L6ySAWLV/Y4L2gIMesduCRys
HLJM11S4JjOyXxTzsfk9Yk1AmWu254lYl9bUTepLaFLzPKixNYjbAgMBAAGjgcQw
gcEwHQYDVR0OBBYEFKHfM8PPPlNBp2hEzKoZ4YTJDbzGMHQGA1UdIwRtMGuAFLQR
M/HX4l73U54gIhBPhga/H8leoT2kOzA5MQswCQYDVQQGEwJBVTEXMBUGA1UECgwO
RG9kZ3kgQnJvdGhlcnMxETAPBgNVBAMMCERvZGd5IENBghQLW2sWduIYWlxapAGL
a2989oyFwDASBgNVHRMBAf8ECDAGAQH/AgEBMAsGA1UdDwQEAwIBBjAJBgNVHRIE
AjAAMA0GCSqGSIb3DQEBBQUAA4IBAQBCbFBurzzhAcEgRpU7J3jZcphQ4wN5ZMnv
Uwtzst/TXhp/uwtvxqla4BGELzm1DfNsfjSlQ+dKT8/ugaStFx2TLQywVDgYK/5N
sB9EWCWjCiPeVomloKWxLjtWorfmm941M25VR0iR4pKS+uX9ezyQFgEWh90fz2Uv
0h0NTUjn6ODfqhrd1sHD3AzOHzLZiBBeHvTlbZqhHntFrFyHJR7ULPRCwff/UDkh
B+BjV8y+RCrq0suyX/x+oTf5BenJ5b9og5gM2KTwWo/0qsllPnu8XjeMrkQE69cF
pkG0RNxIUYQqtPU7OTdXoQry7UUdm0OFeXoTK53LRdJai7V3/VBI
-----END CERTIFICATE-----
