Certificate:
    Data:
        Version: 3 (0x2)
        Serial Number:
            7e:87:2e:30:f5:8d:0a:d5:0d:0d:c5:64:03:aa:e7:4b:df:c9:b6:fb
        Signature Algorithm: sha1WithRSAEncryption
        Issuer: C=AU, O=Dodgy Brothers, CN=Dodgy CA
        Validity
            Not Before: Aug  1 19:35:53 2023 GMT
            Not After : Jul 31 19:35:53 2024 GMT
        Subject: C=AU, O=Dodgy Brothers, CN=Brother 1, CN=notimes
        Subject Public Key Info:
            Public Key Algorithm: rsaEncryption
                Public-Key: (2048 bit)
                Modulus:
                    00:be:95:86:fa:71:4c:6a:ea:51:98:50:4b:99:a1:
                    2c:66:15:f3:60:f3:e1:ff:69:fb:ce:48:01:1d:fe:
                    e1:2c:38:b0:e3:bd:8f:4b:48:a7:7e:3a:c6:73:e3:
                    ab:bf:e1:da:6e:96:f5:fe:c3:e4:b4:a8:ad:bc:56:
                    34:d4:96:25:74:27:c3:10:db:35:10:25:1c:8e:4b:
                    81:9b:fb:42:04:7c:6f:3d:e2:38:6c:0e:e4:2e:8e:
                    2a:18:6d:30:cd:67:2a:23:6b:37:cf:05:9f:cc:b7:
                    59:58:7f:ba:c4:0a:3f:8c:a4:ad:cb:98:9c:c0:f2:
                    8f:69:67:0f:c1:4e:33:cf:fc:85:5e:bb:5e:cf:93:
                    b0:cf:d9:f4:52:79:87:b1:f8:4d:15:68:65:d5:b7:
                    19:08:63:7f:5e:b1:34:ad:05:8f:5a:f0:e4:e1:8f:
                    25:f2:5c:5c:61:95:b0:56:2d:31:2b:08:65:79:e5:
                    b1:3b:9d:3e:b9:52:4b:ac:5d:c4:58:66:85:8d:81:
                    b3:04:28:f4:3f:2f:ac:92:01:62:d5:fd:8e:0b:da:
                    02:0c:7a:c7:6e:09:1c:ac:1c:b2:4c:d7:54:b8:26:
                    33:b2:5f:14:f3:b1:f9:3d:62:4d:40:99:6b:b6:e7:
                    89:58:97:d6:d4:4d:ea:4b:68:52:f3:3c:a8:b1:35:
                    88:db
                Exponent: 65537 (0x10001)
        X509v3 extensions:
            X509v3 Subject Key Identifier: 
                A1:DF:33:C3:CF:3E:53:41:A7:68:44:CC:AA:19:E1:84:C9:0D:BC:C6
            X509v3 Authority Key Identifier: 
                keyid:B4:11:33:F1:D7:E2:5E:F7:53:9E:20:22:10:4F:86:06:BF:1F:C9:5E
                DirName:/C=AU/O=Dodgy Brothers/CN=Dodgy CA
                serial:0B:5B:6B:16:76:E2:18:5A:5C:5A:A4:01:8B:6B:6F:7C:F6:8C:85:C0
            X509v3 Basic Constraints: critical
                CA:TRUE, pathlen:1
            X509v3 Key Usage: 
                Certificate Sign, CRL Sign
            X509v3 Issuer Alternative Name: 
                <EMPTY>

    Signature Algorithm: sha1WithRSAEncryption
    Signature Value:
        2d:c7:54:80:dc:f8:b6:33:93:9e:bf:da:dd:78:5e:ed:41:de:
        7e:e5:bf:43:74:77:06:f5:b1:0f:01:a6:5b:9d:34:22:59:da:
        32:5e:1f:49:f2:4d:c3:c8:00:3e:38:22:1c:1c:52:ac:21:fc:
        c2:54:a6:da:04:ce:70:c5:40:0e:07:9d:b6:27:65:4c:57:06:
        3f:e6:9e:89:ac:e2:bb:ee:fb:78:e1:c7:8d:44:9a:63:c3:66:
        5c:45:b3:79:45:32:36:d5:75:8b:66:68:ff:83:e7:67:c8:da:
        92:37:df:94:b9:b8:b5:0a:13:05:48:05:95:3f:97:31:e8:36:
        8c:cb:b8:32:88:ba:f0:d1:f3:16:c6:36:77:b4:aa:4b:90:58:
        71:39:f3:18:88:4b:e6:07:ea:ad:3e:b9:9d:ff:e4:f4:13:ee:
        3c:81:50:5f:ca:c9:46:54:c3:ca:77:55:d7:ed:e1:35:8e:38:
        a1:b6:43:a1:37:1b:a3:8d:2a:ee:a9:c0:59:17:e2:5d:09:3d:
        51:53:e0:d7:f2:ff:e4:74:ca:d4:41:2c:7a:f6:67:21:a5:3c:
        7a:80:e3:cc:63:81:9e:d4:fa:3f:06:c3:db:3f:b7:9e:0d:97:
        df:98:0c:10:7c:d2:d4:e5:01:e0:d9:64:21:f9:e0:90:56:ed:
        30:17:e8:98
-----BEGIN CERTIFICATE-----
MIID2DCCAsCgAwIBAgIUfocuMPWNCtUNDcVkA6rnS9/JtvswDQYJKoZIhvcNAQEF
BQAwOTELMAkGA1UEBhMCQVUxFzAVBgNVBAoMDkRvZGd5IEJyb3RoZXJzMREwDwYD
VQQDDAhEb2RneSBDQTAeFw0yMzA4MDExOTM1NTNaFw0yNDA3MzExOTM1NTNaMEwx
CzAJBgNVBAYTAkFVMRcwFQYDVQQKDA5Eb2RneSBCcm90aGVyczESMBAGA1UEAwwJ
QnJvdGhlciAxMRAwDgYDVQQDDAdub3RpbWVzMIIBIjANBgkqhkiG9w0BAQEFAAOC
AQ8AMIIBCgKCAQEAvpWG+nFMaupRmFBLmaEsZhXzYPPh/2n7zkgBHf7hLDiw472P
S0infjrGc+Orv+Habpb1/sPktKitvFY01JYldCfDENs1ECUcjkuBm/tCBHxvPeI4
bA7kLo4qGG0wzWcqI2s3zwWfzLdZWH+6xAo/jKSty5icwPKPaWcPwU4zz/yFXrte
z5Owz9n0UnmHsfhNFWhl1bcZCGN/XrE0rQWPWvDk4Y8l8lxcYZWwVi0xKwhleeWx
O50+uVJLrF3EWGaFjYGzBCj0Py+skgFi1f2OC9oCDHrHbgkcrByyTNdUuCYzsl8U
87H5PWJNQJlrtueJWJfW1E3qS2hS8zyosTWI2wIDAQABo4HEMIHBMB0GA1UdDgQW
BBSh3zPDzz5TQadoRMyqGeGEyQ28xjB0BgNVHSMEbTBrgBS0ETPx1+Je91OeICIQ
T4YGvx/JXqE9pDswOTELMAkGA1UEBhMCQVUxFzAVBgNVBAoMDkRvZGd5IEJyb3Ro
ZXJzMREwDwYDVQQDDAhEb2RneSBDQYIUC1trFnbiGFpcWqQBi2tvfPaMhcAwEgYD
VR0TAQH/BAgwBgEB/wIBATALBgNVHQ8EBAMCAQYwCQYDVR0SBAIwADANBgkqhkiG
9w0BAQUFAAOCAQEALcdUgNz4tjOTnr/a3Xhe7UHefuW/Q3R3BvWxDwGmW500Ilna
Ml4fSfJNw8gAPjgiHBxSrCH8wlSm2gTOcMVADgedtidlTFcGP+aeiaziu+77eOHH
jUSaY8NmXEWzeUUyNtV1i2Zo/4PnZ8jakjfflLm4tQoTBUgFlT+XMeg2jMu4Moi6
8NHzFsY2d7SqS5BYcTnzGIhL5gfqrT65nf/k9BPuPIFQX8rJRlTDyndV1+3hNY44
obZDoTcbo40q7qnAWRfiXQk9UVPg1/L/5HTK1EEsevZnIaU8eoDjzGOBntT6PwbD
2z+3ng2X35gMEHzS1OUB4NlkIfngkFbtMBfomA==
-----END CERTIFICATE-----
