Certificate:
    Data:
        Version: 3 (0x2)
        Serial Number: 1234567890 (0x499602d2)
        Signature Algorithm: sha256WithRSAEncryption
        Issuer: CN = ca.example.com
        Validity
            Not Before: Aug  1 19:30:54 2023 GMT
            Not After : Jul 31 19:30:54 2024 GMT
        Subject: CN = test.example.com
        Subject Public Key Info:
            Public Key Algorithm: rsaEncryption
                Public-Key: (2048 bit)
                Modulus:
                    00:e2:08:93:f4:b6:c3:aa:0f:a3:67:f8:19:ba:8f:
                    99:b7:0a:c4:f9:17:c9:97:10:fd:44:9e:83:f3:8d:
                    cc:95:ac:d6:d9:cc:5c:07:c0:be:fe:7e:48:b5:33:
                    f9:64:c1:0e:29:e5:90:7d:90:21:44:45:3e:af:6c:
                    83:2e:31:13:33:4f:f6:ce:dc:b4:51:35:4d:86:69:
                    3e:63:1a:63:72:da:e7:07:ad:50:82:89:7c:04:7c:
                    3b:70:74:14:cb:29:f4:de:ff:79:33:d0:92:5f:e4:
                    73:6a:26:cb:c4:c4:7a:72:92:03:74:65:e4:e2:4f:
                    c0:db:1a:6b:19:27:c2:18:b2:c9:74:57:30:fd:ba:
                    ac:9b:26:8d:69:ec:ca:ef:9c:10:bb:fe:f6:e7:0f:
                    56:fb:d3:7b:e7:1a:45:85:3f:38:a4:9a:a4:c4:37:
                    75:99:95:c7:d3:2d:bb:d6:73:8a:cb:be:b3:7e:c0:
                    45:c5:f3:bc:20:26:2e:da:ae:71:69:24:2f:1b:b3:
                    90:62:d8:0c:04:7b:b5:e8:ed:5f:e5:18:23:6a:67:
                    95:b6:b8:c2:bc:5b:47:58:38:2e:4c:9b:0c:92:60:
                    0f:f0:e5:fd:0e:8c:f5:54:6c:a8:46:28:5a:11:11:
                    e1:2d:cc:34:a0:9a:58:3b:c5:6b:c8:1b:44:14:f4:
                    64:bf
                Exponent: 65537 (0x10001)
        X509v3 extensions:
            X509v3 Subject Key Identifier: 
                21:BF:0D:87:FD:CA:7D:CA:84:39:4A:25:A0:E9:2E:30:80:A6:FC:52
            X509v3 Authority Key Identifier: 
                21:BF:0D:87:FD:CA:7D:CA:84:39:4A:25:A0:E9:2E:30:80:A6:FC:52
            X509v3 Basic Constraints: critical
                CA:TRUE
    Signature Algorithm: sha256WithRSAEncryption
    Signature Value:
        2d:ca:bd:c1:f5:7a:29:ea:4f:e5:d5:bf:b4:ac:c1:75:f7:b9:
        12:ac:34:b9:d4:a3:4b:ba:84:a5:0d:e4:00:08:69:b2:18:b3:
        42:b1:ab:7b:80:1d:3f:d7:d4:6c:ba:4f:05:f8:8f:c7:96:80:
        df:16:e5:90:e2:01:77:4f:cc:c3:6d:0f:ce:56:70:90:88:79:
        39:75:28:d4:06:ad:84:f3:d3:f7:58:8d:b4:ce:b5:eb:40:b6:
        62:54:42:bb:40:a2:95:65:6a:b9:b4:bb:21:52:71:c7:02:9e:
        08:85:17:41:79:ba:b4:da:1f:4c:ec:ba:74:ed:61:54:69:98:
        eb:35:b0:08:07:c4:89:d4:b5:d3:0b:9c:87:7a:08:a5:14:fd:
        a5:d6:00:5f:7e:e2:5c:ab:4e:84:ed:76:c0:09:7c:a7:df:c9:
        0a:0e:8d:ab:60:90:41:3d:5c:d7:18:bb:3c:f0:93:c6:00:d7:
        45:01:00:91:20:cd:b2:fd:cb:73:07:81:8c:16:07:72:53:b5:
        f4:07:a8:5a:69:b1:3c:2a:d0:9c:c5:53:ac:0e:73:e0:4b:f5:
        0f:6a:9d:d0:ed:0a:a2:3a:08:0e:bb:13:82:a7:37:c2:74:df:
        37:65:72:7e:66:e3:95:7a:d2:75:7a:dc:27:61:1a:c7:bf:db:
        0c:eb:6e:31:ed:ed:23:4e:cf:22:f5:a6:ea:b8:f5:8c:e6:47:
        8c:5d:b5:b7:46:a1:75:32:24:4e:10:ab:26:9c:71:b0:fa:65:
        fd:e0:81:77:80:11:8e:c5:f0:87:1f:66:dd:c8:dc:ae:d5:2d:
        5c:ba:89:08:5a:c3:d3:7e:0d:be:5f:18:cf:33:d3:2b:42:70:
        1c:f0:73:1c:af:19:d6:06:75:72:9c:1b:3f:14:e7:fd:82:d1:
        94:b2:98:74:be:a8:77:28:01:1b:5b:12:74:41:9d:5a:52:34:
        c2:63:d4:e1:ef:31:9b:bb:7f:7f:9f:df:9a:38:72:ca:12:7d:
        e8:db:84:f0:f8:59:b1:6d:89:f4:f4:ed:e2:e8:4f:bc:5c:1c:
        57:4b:c6:eb:4c:db:fe:3f:e4:ae:7c:28:6c:5c:80:f8:ca:29:
        79:d3:b6:37:68:99:dd:fd:59:4c:7a:3b:4a:92:3b:84:54:bc:
        14:6a:9e:cf:7f:6c:0b:e3:2e:c4:34:ef:a7:5b:b9:1f:62:20:
        2c:e3:31:ed:c6:2a:11:8e:39:f8:19:77:69:15:62:5a:84:37:
        cb:9b:f1:c4:9b:42:90:cc:55:80:e4:48:8f:cd:f8:f1:b6:4a:
        7b:be:33:7e:2f:4a:28:dc:8d:71:f8:35:6b:8d:99:07:5b:41:
        58:16:e1:54:e5:57:03:24
-----BEGIN CERTIFICATE-----
MIIEBTCCAe2gAwIBAgIESZYC0jANBgkqhkiG9w0BAQsFADAZMRcwFQYDVQQDDA5j
YS5leGFtcGxlLmNvbTAeFw0yMzA4MDExOTMwNTRaFw0yNDA3MzExOTMwNTRaMBsx
GTAXBgNVBAMMEHRlc3QuZXhhbXBsZS5jb20wggEiMA0GCSqGSIb3DQEBAQUAA4IB
DwAwggEKAoIBAQDiCJP0tsOqD6Nn+Bm6j5m3CsT5F8mXEP1EnoPzjcyVrNbZzFwH
wL7+fki1M/lkwQ4p5ZB9kCFERT6vbIMuMRMzT/bO3LRRNU2GaT5jGmNy2ucHrVCC
iXwEfDtwdBTLKfTe/3kz0JJf5HNqJsvExHpykgN0ZeTiT8DbGmsZJ8IYssl0VzD9
uqybJo1p7MrvnBC7/vbnD1b703vnGkWFPzikmqTEN3WZlcfTLbvWc4rLvrN+wEXF
87wgJi7arnFpJC8bs5Bi2AwEe7Xo7V/lGCNqZ5W2uMK8W0dYOC5MmwySYA/w5f0O
jPVUbKhGKFoREeEtzDSgmlg7xWvIG0QU9GS/AgMBAAGjUzBRMB0GA1UdDgQWBBQh
vw2H/cp9yoQ5SiWg6S4wgKb8UjAfBgNVHSMEGDAWgBQhvw2H/cp9yoQ5SiWg6S4w
gKb8UjAPBgNVHRMBAf8EBTADAQH/MA0GCSqGSIb3DQEBCwUAA4ICAQAtyr3B9Xop
6k/l1b+0rMF197kSrDS51KNLuoSlDeQACGmyGLNCsat7gB0/19Rsuk8F+I/HloDf
FuWQ4gF3T8zDbQ/OVnCQiHk5dSjUBq2E89P3WI20zrXrQLZiVEK7QKKVZWq5tLsh
UnHHAp4IhRdBebq02h9M7Lp07WFUaZjrNbAIB8SJ1LXTC5yHegilFP2l1gBffuJc
q06E7XbACXyn38kKDo2rYJBBPVzXGLs88JPGANdFAQCRIM2y/ctzB4GMFgdyU7X0
B6haabE8KtCcxVOsDnPgS/UPap3Q7QqiOggOuxOCpzfCdN83ZXJ+ZuOVetJ1etwn
YRrHv9sM624x7e0jTs8i9abquPWM5keMXbW3RqF1MiROEKsmnHGw+mX94IF3gBGO
xfCHH2bdyNyu1S1cuokIWsPTfg2+XxjPM9MrQnAc8HMcrxnWBnVynBs/FOf9gtGU
sph0vqh3KAEbWxJ0QZ1aUjTCY9Th7zGbu39/n9+aOHLKEn3o24Tw+FmxbYn09O3i
6E+8XBxXS8brTNv+P+SufChsXID4yil507Y3aJnd/VlMejtKkjuEVLwUap7Pf2wL
4y7ENO+nW7kfYiAs4zHtxioRjjn4GXdpFWJahDfLm/HEm0KQzFWA5EiPzfjxtkp7
vjN+L0oo3I1x+DVrjZkHW0FYFuFU5VcDJA==
-----END CERTIFICATE-----
