Certificate:
    Data:
        Version: 1 (0x0)
        Serial Number:
            5b:29:ff:1b:32:c2:07:8c:42:57:bc:34:ca:a2:a0:b6:5e:22:df:14
        Signature Algorithm: sha256WithRSAEncryption
        Issuer: CN = ca.example.com
        Validity
            Not Before: Aug  1 19:30:55 2023 GMT
            Not After : Aug 31 19:30:55 2023 GMT
        Subject: CN = b.example.com
        Subject Public Key Info:
            Public Key Algorithm: rsaEncryption
                Public-Key: (4096 bit)
                Modulus:
                    00:d6:63:26:a4:9e:3a:83:34:c8:2f:e6:58:e5:1b:
                    d3:eb:83:82:4e:83:84:9e:be:5c:3d:38:65:8d:e0:
                    21:55:b7:5f:5f:7c:d1:0d:d9:65:4d:eb:4a:b5:61:
                    19:ba:db:86:b3:72:8a:f1:49:6a:77:83:97:f6:84:
                    e7:d6:13:17:95:68:2e:30:1b:94:c8:87:be:7f:0e:
                    88:1e:c8:9d:64:42:eb:88:48:17:42:a7:fc:e4:64:
                    83:e4:02:ab:72:00:53:e5:6f:d1:88:1e:e1:1b:ea:
                    71:ef:45:b1:1b:11:89:19:06:45:c6:e9:50:54:03:
                    7f:bf:63:9e:dd:00:27:e5:3a:e4:24:ef:fb:e3:9c:
                    6f:fa:77:3d:0a:dd:65:ca:cd:4e:24:bc:03:e9:a8:
                    6d:82:f8:47:53:ec:5f:c1:94:d2:c2:ee:5c:30:c6:
                    0a:75:63:e0:5b:1a:c4:bc:62:f5:9a:e6:24:22:18:
                    5e:5f:1f:5d:7b:62:78:7c:4c:a5:41:37:02:c5:f7:
                    62:0d:ba:07:90:bb:56:ac:75:7e:1c:1a:6e:a2:1c:
                    da:ed:26:f2:5c:4b:1e:af:1f:ff:6c:0d:f1:c3:35:
                    21:58:28:cb:2c:63:ff:0a:4c:d1:e7:75:d7:3d:12:
                    79:eb:dc:7c:7c:18:1d:f2:33:47:06:b4:af:40:ff:
                    7e:e6:f6:17:06:3a:4f:3f:29:5c:6e:06:07:a1:da:
                    39:6e:de:eb:0b:7b:09:76:3f:09:03:40:6f:7e:67:
                    28:9e:02:8b:39:20:65:0e:dd:53:fb:c3:0d:46:b8:
                    ae:a8:e9:01:2f:73:2d:10:5b:54:55:e4:d8:c5:a0:
                    c4:9c:2f:2e:b4:67:ce:4b:fd:2a:72:ea:d1:0f:19:
                    1b:36:4e:80:ba:12:a9:13:b1:be:55:c1:15:fa:5f:
                    c7:46:72:bf:c0:99:8c:18:bf:34:da:5a:c7:14:e8:
                    e7:83:59:82:25:0e:d7:8a:5e:40:25:6b:c8:3a:18:
                    2d:18:c9:cd:55:d4:14:11:6c:2d:a0:d5:aa:46:4d:
                    35:28:92:76:c9:e4:44:c6:b5:82:11:f7:0a:48:11:
                    f7:7f:b8:67:4b:00:58:6b:27:da:30:bd:e8:db:69:
                    34:50:be:3d:28:e9:6a:ae:af:90:ed:69:3d:4c:fd:
                    67:8e:38:6d:44:de:b5:cc:0e:5a:43:31:3a:30:1c:
                    05:49:ad:97:93:e8:32:7a:84:49:41:26:2b:4a:f6:
                    90:65:6e:b0:fb:c3:db:e8:65:7f:0e:47:c8:04:7a:
                    81:c3:84:4d:ff:8a:5d:d8:50:95:2f:e2:56:7b:e8:
                    3d:89:c4:2c:5d:3a:da:98:d2:e1:d7:f0:f3:80:0d:
                    4e:75:e9
                Exponent: 65537 (0x10001)
    Signature Algorithm: sha256WithRSAEncryption
    Signature Value:
        61:c0:37:1c:24:13:97:97:dd:18:a4:24:5d:73:c3:2a:9a:f1:
        fd:23:2e:08:0d:bb:a2:1e:cd:a8:90:66:b2:8d:47:8c:7b:c1:
        33:26:a7:97:e7:95:c2:cf:14:ab:4e:9b:1d:5f:92:83:53:9f:
        fa:65:73:55:6d:41:39:f5:f6:3e:e8:e7:4f:49:d8:66:e9:41:
        47:19:a8:b6:87:cf:44:50:f2:10:59:fe:92:cd:7f:f0:7f:75:
        5e:1a:0e:2b:a4:cd:0a:2c:9f:b1:08:7b:c9:de:5b:c6:2d:5f:
        e2:4e:7b:f0:39:0d:02:a9:41:d9:53:18:8b:6a:f6:ef:b6:4c:
        2a:96:3d:63:5d:c2:c3:0f:c8:5a:dd:fe:41:84:f3:3a:c8:0f:
        81:48:96:f8:54:3c:04:ce:8e:ba:b4:d3:12:de:d7:eb:aa:09:
        ec:29:f6:db:94:4b:83:db:a3:38:d4:65:b0:6b:51:82:42:e9:
        25:1f:10:e1:57:fe:9f:c1:49:88:c6:97:11:e6:ed:15:de:cc:
        ca:66:6a:48:b0:9b:c7:8e:ba:08:3b:69:e2:11:e1:aa:30:ce:
        ce:b5:8c:7a:65:bf:cd:3e:ea:9a:e3:73:86:66:6b:2e:17:20:
        6d:7d:83:b4:01:d5:3f:43:f7:2a:85:c4:8c:af:97:a2:ba:92:
        6d:ab:b6:75:ff:d1:2d:1a:6b:d0:1d:c2:e4:87:c5:4e:87:3b:
        64:be:00:d1:90:6b:db:4a:6a:38:1c:3f:80:80:70:46:e5:cc:
        48:82:63:5c:d7:29:b7:01:ba:aa:69:de:f2:8a:20:ef:05:bb:
        ec:20:9b:b8:b2:62:28:fe:a5:f7:2d:b2:a6:40:17:3c:06:fd:
        55:19:74:94:67:bd:54:b1:be:77:04:77:4e:2c:f7:1c:51:5a:
        46:72:10:1a:4f:fa:73:93:41:82:ed:6b:6a:1e:55:05:42:39:
        e6:4d:dd:4e:e8:14:53:9e:1a:35:35:bd:db:11:d5:39:8b:10:
        f2:1a:76:3f:b6:ab:b6:cc:cd:bc:7b:ff:6f:1f:1f:68:0e:48:
        90:14:be:f3:76:62:8e:65:27:e6:f9:2e:a7:38:9d:c6:3f:d0:
        fe:ad:34:f3:57:8f:0e:24:6b:d9:2c:d4:01:86:73:28:4c:93:
        bd:9a:cb:d3:c4:30:ac:97:e4:12:ed:11:14:98:1f:04:0e:d7:
        74:23:d3:aa:6d:51:83:bf:e9:cd:a9:4d:3f:b7:00:26:9b:5a:
        37:4c:e8:34:1b:73:da:99:1c:2e:d2:8e:28:5f:2f:53:c5:9b:
        9e:52:8a:63:d9:c0:47:d5:fe:c2:26:bd:22:7b:6a:dd:d2:c2:
        e9:bf:92:72:96:3c:c6:d2
-----BEGIN CERTIFICATE-----
MIIEuDCCAqACFFsp/xsywgeMQle8NMqioLZeIt8UMA0GCSqGSIb3DQEBCwUAMBkx
FzAVBgNVBAMMDmNhLmV4YW1wbGUuY29tMB4XDTIzMDgwMTE5MzA1NVoXDTIzMDgz
MTE5MzA1NVowGDEWMBQGA1UEAwwNYi5leGFtcGxlLmNvbTCCAiIwDQYJKoZIhvcN
AQEBBQADggIPADCCAgoCggIBANZjJqSeOoM0yC/mWOUb0+uDgk6DhJ6+XD04ZY3g
IVW3X1980Q3ZZU3rSrVhGbrbhrNyivFJaneDl/aE59YTF5VoLjAblMiHvn8OiB7I
nWRC64hIF0Kn/ORkg+QCq3IAU+Vv0Yge4Rvqce9FsRsRiRkGRcbpUFQDf79jnt0A
J+U65CTv++Ocb/p3PQrdZcrNTiS8A+mobYL4R1PsX8GU0sLuXDDGCnVj4FsaxLxi
9ZrmJCIYXl8fXXtieHxMpUE3AsX3Yg26B5C7Vqx1fhwabqIc2u0m8lxLHq8f/2wN
8cM1IVgoyyxj/wpM0ed11z0SeevcfHwYHfIzRwa0r0D/fub2FwY6Tz8pXG4GB6Ha
OW7e6wt7CXY/CQNAb35nKJ4CizkgZQ7dU/vDDUa4rqjpAS9zLRBbVFXk2MWgxJwv
LrRnzkv9KnLq0Q8ZGzZOgLoSqROxvlXBFfpfx0Zyv8CZjBi/NNpaxxTo54NZgiUO
14peQCVryDoYLRjJzVXUFBFsLaDVqkZNNSiSdsnkRMa1ghH3CkgR93+4Z0sAWGsn
2jC96NtpNFC+PSjpaq6vkO1pPUz9Z444bUTetcwOWkMxOjAcBUmtl5PoMnqESUEm
K0r2kGVusPvD2+hlfw5HyAR6gcOETf+KXdhQlS/iVnvoPYnELF062pjS4dfw84AN
TnXpAgMBAAEwDQYJKoZIhvcNAQELBQADggIBAGHANxwkE5eX3RikJF1zwyqa8f0j
LggNu6IezaiQZrKNR4x7wTMmp5fnlcLPFKtOmx1fkoNTn/plc1VtQTn19j7o509J
2GbpQUcZqLaHz0RQ8hBZ/pLNf/B/dV4aDiukzQosn7EIe8neW8YtX+JOe/A5DQKp
QdlTGItq9u+2TCqWPWNdwsMPyFrd/kGE8zrID4FIlvhUPATOjrq00xLe1+uqCewp
9tuUS4PbozjUZbBrUYJC6SUfEOFX/p/BSYjGlxHm7RXezMpmakiwm8eOugg7aeIR
4aowzs61jHplv80+6prjc4Zmay4XIG19g7QB1T9D9yqFxIyvl6K6km2rtnX/0S0a
a9AdwuSHxU6HO2S+ANGQa9tKajgcP4CAcEblzEiCY1zXKbcBuqpp3vKKIO8Fu+wg
m7iyYij+pfctsqZAFzwG/VUZdJRnvVSxvncEd04s9xxRWkZyEBpP+nOTQYLta2oe
VQVCOeZN3U7oFFOeGjU1vdsR1TmLEPIadj+2q7bMzbx7/28fH2gOSJAUvvN2Yo5l
J+b5Lqc4ncY/0P6tNPNXjw4ka9ks1AGGcyhMk72ay9PEMKyX5BLtERSYHwQO13Qj
06ptUYO/6c2pTT+3ACabWjdM6DQbc9qZHC7SjihfL1PFm55SimPZwEfV/sImvSJ7
at3Swum/knKWPMbS
-----END CERTIFICATE-----
