Certificate:
    Data:
        Version: 3 (0x2)
        Serial Number:
            0b:5b:6b:16:76:e2:18:5a:5c:5a:a4:01:8b:6b:6f:7c:f6:8c:85:c0
        Signature Algorithm: sha1WithRSAEncryption
        Issuer: C=AU, O=Dodgy Brothers, CN=Dodgy CA
        Validity
            Not Before: Aug  1 19:35:52 2023 GMT
            Not After : Jul 31 19:35:52 2026 GMT
        Subject: C=AU, O=Dodgy Brothers, CN=Dodgy CA
        Subject Public Key Info:
            Public Key Algorithm: rsaEncryption
                Public-Key: (2048 bit)
                Modulus:
                    00:96:9d:a4:3d:00:4b:1c:5f:c6:cb:dd:8f:d2:31:
                    b2:88:15:cc:c4:86:2c:5c:e2:69:8b:84:f4:a7:a3:
                    53:df:91:e3:bf:51:89:fb:f0:7c:10:0d:3b:ad:ac:
                    35:62:75:f5:7f:ff:f4:6e:54:8f:05:a6:92:23:b3:
                    9f:59:39:d0:39:18:b0:10:40:de:62:73:8a:4e:b0:
                    8e:df:dc:e7:c9:41:22:54:84:80:08:29:bc:35:3c:
                    86:df:30:de:dd:b4:24:ff:7e:62:a5:c0:7a:e8:2a:
                    16:3f:d6:97:da:c5:42:db:2f:69:64:91:cb:08:d7:
                    56:5a:79:7f:1b:84:41:e9:4d:9d:77:09:10:a8:6c:
                    29:33:44:c6:c0:54:65:e6:e8:e3:f2:75:05:6a:64:
                    95:6c:c0:f4:fd:25:61:6e:48:36:f0:c0:03:07:05:
                    d6:7c:e5:11:fd:18:e8:4a:2d:d3:72:0c:37:28:36:
                    31:31:38:85:e8:71:8d:d8:02:49:c8:bc:19:89:c5:
                    8a:b1:3f:a2:35:ea:aa:90:1c:64:68:7b:af:67:6a:
                    5a:06:54:0f:50:e1:f9:b4:f6:be:3a:d4:ce:3f:1e:
                    4c:7d:c6:77:32:3e:a2:58:ed:db:dd:74:d8:92:14:
                    6a:a8:f7:cb:34:58:91:a8:7c:14:b1:7d:08:b3:4d:
                    b1:47
                Exponent: 65537 (0x10001)
        X509v3 extensions:
            X509v3 Subject Key Identifier: 
                B4:11:33:F1:D7:E2:5E:F7:53:9E:20:22:10:4F:86:06:BF:1F:C9:5E
            X509v3 Authority Key Identifier: 
                keyid:B4:11:33:F1:D7:E2:5E:F7:53:9E:20:22:10:4F:86:06:BF:1F:C9:5E
                DirName:/C=AU/O=Dodgy Brothers/CN=Dodgy CA
                serial:0B:5B:6B:16:76:E2:18:5A:5C:5A:A4:01:8B:6B:6F:7C:F6:8C:85:C0
            X509v3 Basic Constraints: critical
                CA:TRUE, pathlen:1
            X509v3 Key Usage: 
                Certificate Sign, CRL Sign
            X509v3 Issuer Alternative Name: 
                <EMPTY>

    Signature Algorithm: sha1WithRSAEncryption
    Signature Value:
        4d:cf:61:6e:d0:92:d0:4e:37:61:01:da:0b:e5:b1:97:1c:22:
        ea:37:9b:04:dd:d0:ef:19:93:41:5e:9d:32:11:94:f1:50:79:
        af:eb:e2:5f:c8:1a:af:62:75:c3:c1:80:90:77:85:f3:81:d7:
        d9:47:f2:87:21:69:a7:48:d7:17:bf:60:a8:5c:9f:d5:6a:af:
        96:11:9c:1a:9f:ac:72:2b:3c:5c:14:c8:7c:03:ab:84:1f:75:
        7d:81:a1:d2:88:1b:71:17:ef:2f:70:75:4b:2a:af:8e:e6:16:
        73:df:d5:71:e0:a4:2e:b6:57:42:63:f4:15:24:c1:27:fa:a3:
        19:5c:12:f3:39:1f:4e:d5:2e:8e:67:34:bf:84:d2:c4:2f:b2:
        9a:11:cb:ba:af:fa:a5:36:5a:1c:f0:15:f0:4c:c7:a4:bd:a4:
        aa:3f:ca:d1:79:22:be:90:6e:48:19:48:44:8a:c1:c5:c2:ff:
        be:bd:9e:6a:7a:c0:e7:99:7a:d0:28:7b:f9:74:0e:a3:c4:00:
        5c:1c:00:a4:74:ab:0c:d6:24:be:86:d8:a1:0a:b6:14:97:6e:
        93:d9:b8:12:63:e1:ff:09:20:f8:c4:43:76:0a:f0:73:5f:17:
        63:d6:c6:17:77:35:a8:df:f8:4b:17:ea:70:56:83:b4:b6:bf:
        08:28:7a:cf
-----BEGIN CERTIFICATE-----
MIIDxTCCAq2gAwIBAgIUC1trFnbiGFpcWqQBi2tvfPaMhcAwDQYJKoZIhvcNAQEF
BQAwOTELMAkGA1UEBhMCQVUxFzAVBgNVBAoMDkRvZGd5IEJyb3RoZXJzMREwDwYD
VQQDDAhEb2RneSBDQTAeFw0yMzA4MDExOTM1NTJaFw0yNjA3MzExOTM1NTJaMDkx
CzAJBgNVBAYTAkFVMRcwFQYDVQQKDA5Eb2RneSBCcm90aGVyczERMA8GA1UEAwwI
RG9kZ3kgQ0EwggEiMA0GCSqGSIb3DQEBAQUAA4IBDwAwggEKAoIBAQCWnaQ9AEsc
X8bL3Y/SMbKIFczEhixc4mmLhPSno1PfkeO/UYn78HwQDTutrDVidfV///RuVI8F
ppIjs59ZOdA5GLAQQN5ic4pOsI7f3OfJQSJUhIAIKbw1PIbfMN7dtCT/fmKlwHro
KhY/1pfaxULbL2lkkcsI11ZaeX8bhEHpTZ13CRCobCkzRMbAVGXm6OPydQVqZJVs
wPT9JWFuSDbwwAMHBdZ85RH9GOhKLdNyDDcoNjExOIXocY3YAknIvBmJxYqxP6I1
6qqQHGRoe69naloGVA9Q4fm09r461M4/Hkx9xncyPqJY7dvddNiSFGqo98s0WJGo
fBSxfQizTbFHAgMBAAGjgcQwgcEwHQYDVR0OBBYEFLQRM/HX4l73U54gIhBPhga/
H8leMHQGA1UdIwRtMGuAFLQRM/HX4l73U54gIhBPhga/H8leoT2kOzA5MQswCQYD
VQQGEwJBVTEXMBUGA1UECgwORG9kZ3kgQnJvdGhlcnMxETAPBgNVBAMMCERvZGd5
IENBghQLW2sWduIYWlxapAGLa2989oyFwDASBgNVHRMBAf8ECDAGAQH/AgEBMAsG
A1UdDwQEAwIBBjAJBgNVHRIEAjAAMA0GCSqGSIb3DQEBBQUAA4IBAQBNz2Fu0JLQ
TjdhAdoL5bGXHCLqN5sE3dDvGZNBXp0yEZTxUHmv6+JfyBqvYnXDwYCQd4XzgdfZ
R/KHIWmnSNcXv2CoXJ/Vaq+WEZwan6xyKzxcFMh8A6uEH3V9gaHSiBtxF+8vcHVL
Kq+O5hZz39Vx4KQutldCY/QVJMEn+qMZXBLzOR9O1S6OZzS/hNLEL7KaEcu6r/ql
Nloc8BXwTMekvaSqP8rReSK+kG5IGUhEisHFwv++vZ5qesDnmXrQKHv5dA6jxABc
HACkdKsM1iS+htihCrYUl26T2bgSY+H/CSD4xEN2CvBzXxdj1sYXdzWo3/hLF+pw
VoO0tr8IKHrP
-----END CERTIFICATE-----
